EXPORTS 
	??_R0?AU?$SingleElementType@$0M@UAwaitType@c10@@@c10@@@8 	 DATA
	??_R0?AUAutogradMeta@autograd@torch@@@8 	 DATA
	??_R0?AUAutogradMetaInterface@c10@@@8 	 DATA
	??_R0?AUAwait@ivalue@c10@@@8 	 DATA
	??_R0?AUAwaitType@c10@@@8 	 DATA
	??_R0?AUDeviceGuardImplInterface@impl@c10@@@8 	 DATA
	??_R0?AUFuture@ivalue@c10@@@8 	 DATA
	??_R0?AUObject@ivalue@c10@@@8 	 DATA
	??_R0?AUSharedType@c10@@@8 	 DATA
	??_R0?AUType@c10@@@8 	 DATA
	??_R0?AV?$Cloneable@VLinearImpl@nn@torch@@@nn@torch@@@8 	 DATA
	??_R0?AV?$_Iosb@H@std@@@8 	 DATA
	??_R0?AV?$_Ref_count@UAwaitType@c10@@@std@@@8 	 DATA
	??_R0?AV?$basic_ios@DU?$char_traits@D@std@@@std@@@8 	 DATA
	??_R0?AV?$basic_ostream@DU?$char_traits@D@std@@@std@@@8 	 DATA
	??_R0?AV?$basic_ostringstream@DU?$char_traits@D@std@@V?$allocator@D@2@@std@@@8 	 DATA
	??_R0?AV?$basic_streambuf@DU?$char_traits@D@std@@@std@@@8 	 DATA
	??_R0?AV?$basic_stringbuf@DU?$char_traits@D@std@@V?$allocator@D@2@@std@@@8 	 DATA
	??_R0?AV?$enable_shared_from_this@USharedType@c10@@@std@@@8 	 DATA
	??_R0?AV?$enable_shared_from_this@VModule@nn@torch@@@std@@@8 	 DATA
	??_R0?AVAdam@optim@torch@@@8 	 DATA
	??_R0?AVError@c10@@@8 	 DATA
	??_R0?AVLinearImpl@nn@torch@@@8 	 DATA
	??_R0?AVModule@nn@torch@@@8 	 DATA
	??_R0?AVOptimizer@optim@torch@@@8 	 DATA
	??_R0?AVRRefInterface@c10@@@8 	 DATA
	??_R0?AVSGD@optim@torch@@@8 	 DATA
	??_R0?AVValueError@c10@@@8 	 DATA
	??_R0?AVVirtualGuardImpl@impl@c10@@@8 	 DATA
	??_R0?AV_Generic_error_category@std@@@8 	 DATA
	??_R0?AV_Ref_count_base@std@@@8 	 DATA
	??_R0?AV_System_error@std@@@8 	 DATA
	??_R0?AVbad_alloc@std@@@8 	 DATA
	??_R0?AVbad_array_new_length@std@@@8 	 DATA
	??_R0?AVbad_optional_access@std@@@8 	 DATA
	??_R0?AVbad_weak_ptr@std@@@8 	 DATA
	??_R0?AVerror_category@std@@@8 	 DATA
	??_R0?AVexception@std@@@8 	 DATA
	??_R0?AVintrusive_ptr_target@c10@@@8 	 DATA
	??_R0?AVios_base@std@@@8 	 DATA
	??_R0?AVruntime_error@std@@@8 	 DATA
	??_R0?AVsystem_error@std@@@8 	 DATA
	?_OptionsStorage@?1??__local_stdio_printf_options@@9@4_KA 	 DATA
	?_Static@?1???$_Immortalize_memcpy_image@V_Generic_error_category@std@@@std@@YAAEBV_Generic_error_category@1@XZ@4U?$_Constexpr_immortalize_impl@V_Generic_error_category@std@@@1@A 	 DATA
	_Avx2WmemEnabledWeakValue 	 DATA
	??$?0$$V@?$_Compressed_pair@U?$default_delete@UAutogradMetaInterface@c10@@@std@@PEAUAutogradMetaInterface@c10@@$00@std@@QEAA@U_Zero_then_variadic_args_t@1@@Z
	??$?0$$V@?$_Compressed_pair@V?$allocator@D@std@@V?$_String_val@U?$_Simple_types@D@std@@@2@$00@std@@QEAA@U_Zero_then_variadic_args_t@1@@Z
	??$?0$$V@?$_Compressed_pair@V?$allocator@UDevice@c10@@@std@@V?$_Vector_val@U?$_Simple_types@UDevice@c10@@@std@@@2@$00@std@@QEAA@U_Zero_then_variadic_args_t@1@@Z
	??$?0$$V@?$_Compressed_pair@V?$allocator@UEvent@c10@@@std@@V?$_Vector_val@U?$_Simple_types@UEvent@c10@@@std@@@2@$00@std@@QEAA@U_Zero_then_variadic_args_t@1@@Z
	??$?0$$V@?$_Compressed_pair@V?$allocator@UFutureCallback@Future@ivalue@c10@@@std@@V?$_Vector_val@U?$_Simple_types@UFutureCallback@Future@ivalue@c10@@@std@@@2@$00@std@@QEAA@U_Zero_then_variadic_args_t@1@@Z
	??$?0$$V@?$_Compressed_pair@V?$allocator@UIValue@c10@@@std@@V?$_Vector_val@U?$_Simple_types@UIValue@c10@@@std@@@2@$00@std@@QEAA@U_Zero_then_variadic_args_t@1@@Z
	??$?0$$V@?$_Compressed_pair@V?$allocator@V?$weak_intrusive_ptr@UStorageImpl@c10@@U?$intrusive_target_default_null_type@UStorageImpl@c10@@@detail@2@@c10@@@std@@V?$_Vector_val@U?$_Simple_types@V?$weak_intrusive_ptr@UStorageImpl@c10@@U?$intrusive_target_default_null_type@UStorageImpl@c10@@@detail@2@@c10@@@std@@@2@$00@std@@QEAA@U_Zero_then_variadic_args_t@1@@Z
	??$?0$$V@?$_Compressed_pair@V?$allocator@VStream@c10@@@std@@V?$_Vector_val@U?$_Simple_types@VStream@c10@@@std@@@2@$00@std@@QEAA@U_Zero_then_variadic_args_t@1@@Z
	??$?0AEAPEAUAutogradMeta@autograd@torch@@@?$_Compressed_pair@U?$default_delete@UAutogradMeta@autograd@torch@@@std@@PEAUAutogradMeta@autograd@torch@@$00@std@@QEAA@U_Zero_then_variadic_args_t@1@AEAPEAUAutogradMeta@autograd@torch@@@Z
	??$?0AEAPEAUDevice@c10@@AEAPEAU01@$0A@@?$pair@PEAUDevice@c10@@PEAU12@@std@@QEAA@AEAPEAUDevice@c10@@0@Z
	??$?0AEAUDevice@c10@@$0A@@?$optional@V?$InlineDeviceGuard@VVirtualGuardImpl@impl@c10@@@impl@c10@@@std@@QEAA@Uin_place_t@1@AEAUDevice@c10@@@Z
	??$?0AEAUDevice@c10@@@?$InlineOptionalDeviceGuard@VVirtualGuardImpl@impl@c10@@@impl@c10@@QEAA@AEAUDevice@2@@Z
	??$?0AEAUDevice@c10@@@?$_Deleted_copy@U?$_Optional_construct_base@V?$InlineDeviceGuard@VVirtualGuardImpl@impl@c10@@@impl@c10@@@std@@@std@@QEAA@Uin_place_t@1@AEAUDevice@c10@@@Z
	??$?0AEAUDevice@c10@@@?$_Deleted_copy_assign@U?$_Optional_construct_base@V?$InlineDeviceGuard@VVirtualGuardImpl@impl@c10@@@impl@c10@@@std@@V?$InlineDeviceGuard@VVirtualGuardImpl@impl@c10@@@impl@c10@@@std@@QEAA@Uin_place_t@1@AEAUDevice@c10@@@Z
	??$?0AEAUDevice@c10@@@?$_Deleted_move@U?$_Optional_construct_base@V?$InlineDeviceGuard@VVirtualGuardImpl@impl@c10@@@impl@c10@@@std@@V?$InlineDeviceGuard@VVirtualGuardImpl@impl@c10@@@impl@c10@@@std@@QEAA@Uin_place_t@1@AEAUDevice@c10@@@Z
	??$?0AEAUDevice@c10@@@?$_Deleted_move_assign@U?$_Optional_construct_base@V?$InlineDeviceGuard@VVirtualGuardImpl@impl@c10@@@impl@c10@@@std@@V?$InlineDeviceGuard@VVirtualGuardImpl@impl@c10@@@impl@c10@@@std@@QEAA@Uin_place_t@1@AEAUDevice@c10@@@Z
	??$?0AEAUDevice@c10@@@?$_Optional_construct_base@V?$InlineDeviceGuard@VVirtualGuardImpl@impl@c10@@@impl@c10@@@std@@QEAA@Uin_place_t@1@AEAUDevice@c10@@@Z
	??$?0AEAUDevice@c10@@@?$_Optional_destruct_base@V?$InlineDeviceGuard@VVirtualGuardImpl@impl@c10@@@impl@c10@@$0A@@std@@QEAA@Uin_place_t@1@AEAUDevice@c10@@@Z
	??$?0AEBV?$allocator@D@std@@$$V@?$_Compressed_pair@V?$allocator@D@std@@V?$_String_val@U?$_Simple_types@D@std@@@2@$00@std@@QEAA@U_One_then_variadic_args_t@1@AEBV?$allocator@D@1@@Z
	??$?0AEBV?$allocator@I@std@@$$V@?$_Compressed_pair@V?$allocator@I@std@@V?$_Vector_val@U?$_Simple_types@I@std@@@2@$00@std@@QEAA@U_One_then_variadic_args_t@1@AEBV?$allocator@I@1@@Z
	??$?0AEBV?$allocator@PEAUTF_Tensor@@@std@@$$V@?$_Compressed_pair@V?$allocator@PEAUTF_Tensor@@@std@@V?$_Vector_val@U?$_Simple_types@PEAUTF_Tensor@@@std@@@2@$00@std@@QEAA@U_One_then_variadic_args_t@1@AEBV?$allocator@PEAUTF_Tensor@@@1@@Z
	??$?0AEBV?$allocator@UTF_Output@@@std@@$$V@?$_Compressed_pair@V?$allocator@UTF_Output@@@std@@V?$_Vector_val@U?$_Simple_types@UTF_Output@@@std@@@2@$00@std@@QEAA@U_One_then_variadic_args_t@1@AEBV?$allocator@UTF_Output@@@1@@Z
	??$?0AEBV?$allocator@_J@std@@$$V@?$_Compressed_pair@V?$allocator@_J@std@@V?$_Vector_val@U?$_Simple_types@_J@std@@@2@$00@std@@QEAA@U_One_then_variadic_args_t@1@AEBV?$allocator@_J@1@@Z
	??$?0U?$default_delete@UAutogradMeta@autograd@torch@@@std@@$0A@@?$unique_ptr@UAutogradMeta@autograd@torch@@U?$default_delete@UAutogradMeta@autograd@torch@@@std@@@std@@QEAA@PEAUAutogradMeta@autograd@torch@@@Z
	??$?0U?$default_delete@UAutogradMeta@autograd@torch@@@std@@PEAUAutogradMeta@autograd@torch@@@?$_Compressed_pair@U?$default_delete@UAutogradMetaInterface@c10@@@std@@PEAUAutogradMetaInterface@c10@@$00@std@@QEAA@U_One_then_variadic_args_t@1@$$QEAU?$default_delete@UAutogradMeta@autograd@torch@@@1@$$QEAPEAUAutogradMeta@autograd@torch@@@Z
	??$?0U?$default_delete@UAutogradMetaInterface@c10@@@std@@$0A@@?$unique_ptr@UAutogradMetaInterface@c10@@U?$default_delete@UAutogradMetaInterface@c10@@@std@@@std@@QEAA@$$T@Z
	??$?0UAutogradMeta@autograd@torch@@$0A@@?$default_delete@UAutogradMetaInterface@c10@@@std@@QEAA@AEBU?$default_delete@UAutogradMeta@autograd@torch@@@1@@Z
	??$?0UAutogradMeta@autograd@torch@@U?$default_delete@UAutogradMeta@autograd@torch@@@std@@$0A@@?$unique_ptr@UAutogradMetaInterface@c10@@U?$default_delete@UAutogradMetaInterface@c10@@@std@@@std@@QEAA@$$QEAV?$unique_ptr@UAutogradMeta@autograd@torch@@U?$default_delete@UAutogradMeta@autograd@torch@@@std@@@1@@Z
	??$?0UAwaitType@c10@@$00@?$SingletonOrSharedTypePtr@UType@c10@@@Type@c10@@QEAA@V?$shared_ptr@UAwaitType@c10@@@std@@@Z
	??$?0UAwaitType@c10@@$0A@@?$shared_ptr@UAwaitType@c10@@@std@@QEAA@PEAUAwaitType@c10@@@Z
	??$?0UAwaitType@c10@@$0A@@?$shared_ptr@UType@c10@@@std@@QEAA@$$QEAV?$shared_ptr@UAwaitType@c10@@@1@@Z
	??$?0UAwaitType@c10@@$0A@@?$weak_ptr@USharedType@c10@@@std@@QEAA@AEBV?$shared_ptr@UAwaitType@c10@@@1@@Z
	??$?0UAwaitType@c10@@@?$shared_ptr@UAwaitType@c10@@@std@@QEAA@AEBV01@PEAUAwaitType@c10@@@Z
	??$?0UCompilationUnit@jit@torch@@$0A@@?$shared_ptr@UCompilationUnit@jit@torch@@@std@@QEAA@AEBV?$weak_ptr@UCompilationUnit@jit@torch@@@1@@Z
	??$?0UTensorImpl@c10@@U?$intrusive_target_default_null_type@UTensorImpl@c10@@@detail@1@@?$intrusive_ptr@UTensorImpl@c10@@UUndefinedTensorImpl@2@@c10@@QEAA@$$QEAV?$intrusive_ptr@UTensorImpl@c10@@U?$intrusive_target_default_null_type@UTensorImpl@c10@@@detail@2@@1@@Z
	??$?0V?$allocator@D@std@@$$V@?$_Compressed_pair@V?$allocator@D@std@@V?$_String_val@U?$_Simple_types@D@std@@@2@$00@std@@QEAA@U_One_then_variadic_args_t@1@$$QEAV?$allocator@D@1@@Z
	??$?0V?$allocator@I@std@@$0A@@?$vector@IV?$allocator@I@std@@@std@@QEAA@_KAEBIAEBV?$allocator@I@1@@Z
	??$?0V?$allocator@PEAUTF_Tensor@@@std@@$0A@@?$vector@PEAUTF_Tensor@@V?$allocator@PEAUTF_Tensor@@@std@@@std@@QEAA@_KAEBQEAUTF_Tensor@@AEBV?$allocator@PEAUTF_Tensor@@@1@@Z
	??$?0V?$allocator@UDevice@c10@@@std@@$$V@?$_Compressed_pair@V?$allocator@UDevice@c10@@@std@@V?$_Vector_val@U?$_Simple_types@UDevice@c10@@@std@@@2@$00@std@@QEAA@U_One_then_variadic_args_t@1@$$QEAV?$allocator@UDevice@c10@@@1@@Z
	??$?0V?$allocator@UDevice@c10@@@std@@PEAUDevice@c10@@PEAU23@PEAU23@@?$_Compressed_pair@V?$allocator@UDevice@c10@@@std@@V?$_Vector_val@U?$_Simple_types@UDevice@c10@@@std@@@2@$00@std@@QEAA@U_One_then_variadic_args_t@1@$$QEAV?$allocator@UDevice@c10@@@1@$$QEAPEAUDevice@c10@@22@Z
	??$?0V?$allocator@UIValue@c10@@@std@@$$V@?$_Compressed_pair@V?$allocator@UIValue@c10@@@std@@V?$_Vector_val@U?$_Simple_types@UIValue@c10@@@std@@@2@$00@std@@QEAA@U_One_then_variadic_args_t@1@$$QEAV?$allocator@UIValue@c10@@@1@@Z
	??$?0V?$allocator@UIValue@c10@@@std@@PEAUIValue@c10@@PEAU23@PEAU23@@?$_Compressed_pair@V?$allocator@UIValue@c10@@@std@@V?$_Vector_val@U?$_Simple_types@UIValue@c10@@@std@@@2@$00@std@@QEAA@U_One_then_variadic_args_t@1@$$QEAV?$allocator@UIValue@c10@@@1@$$QEAPEAUIValue@c10@@22@Z
	??$?0V?$allocator@V?$weak_intrusive_ptr@UStorageImpl@c10@@U?$intrusive_target_default_null_type@UStorageImpl@c10@@@detail@2@@c10@@@std@@PEAV?$weak_intrusive_ptr@UStorageImpl@c10@@U?$intrusive_target_default_null_type@UStorageImpl@c10@@@detail@2@@c10@@PEAV23@PEAV23@@?$_Compressed_pair@V?$allocator@V?$weak_intrusive_ptr@UStorageImpl@c10@@U?$intrusive_target_default_null_type@UStorageImpl@c10@@@detail@2@@c10@@@std@@V?$_Vector_val@U?$_Simple_types@V?$weak_intrusive_ptr@UStorageImpl@c10@@U?$intrusive_target_default_null_type@UStorageImpl@c10@@@detail@2@@c10@@@std@@@2@$00@std@@QEAA@U_One_then_variadic_args_t@1@$$QEAV?$allocator@V?$weak_intrusive_ptr@UStorageImpl@c10@@U?$intrusive_target_default_null_type@UStorageImpl@c10@@@detail@2@@c10@@@1@$$QEAPEAV?$weak_intrusive_ptr@UStorageImpl@c10@@U?$intrusive_target_default_null_type@UStorageImpl@c10@@@detail@2@@c10@@22@Z
	??$?0V?$allocator@VStream@c10@@@std@@@?$ArrayRef@VStream@c10@@@c10@@QEAA@AEBV?$vector@VStream@c10@@V?$allocator@VStream@c10@@@std@@@std@@@Z
	??$?0W4ScalarType@c10@@$0A@@?$optional@W4ScalarType@c10@@@std@@QEAA@$$QEAW4ScalarType@c10@@@Z
	??$?0W4ScalarType@c10@@@?$_Optional_construct_base@W4ScalarType@c10@@@std@@QEAA@Uin_place_t@1@$$QEAW4ScalarType@c10@@@Z
	??$?0W4ScalarType@c10@@@?$_Optional_destruct_base@W4ScalarType@c10@@$00@std@@QEAA@Uin_place_t@1@$$QEAW4ScalarType@c10@@@Z
	??$?0_N@?$allocator@I@std@@QEAA@AEBV?$allocator@_N@1@@Z
	??$?4UAwaitType@c10@@$0A@@?$weak_ptr@USharedType@c10@@@std@@QEAAAEAV01@AEBV?$shared_ptr@UAwaitType@c10@@@1@@Z
	??$?4UDevice@c10@@$0A@@?$optional@UDevice@c10@@@std@@QEAAAEAV01@$$QEAUDevice@c10@@@Z
	??$?6DU?$char_traits@D@std@@V?$allocator@D@1@@std@@YAAEAV?$basic_ostream@DU?$char_traits@D@std@@@0@AEAV10@AEBV?$basic_string@DU?$char_traits@D@std@@V?$allocator@D@2@@0@@Z
	??$?6U?$char_traits@D@std@@@std@@YAAEAV?$basic_ostream@DU?$char_traits@D@std@@@0@AEAV10@PEBD@Z
	??$?9_N_N$0A@@std@@YA_NAEBV?$optional@_N@0@AEB_N@Z
	??$_Adl_verify_range@PEA_JPEA_J@std@@YAXAEBQEA_J0@Z
	??$_Adl_verify_range@V?$_Vector_const_iterator@V?$_Vector_val@U?$_Simple_types@UDevice@c10@@@std@@@std@@@std@@V12@@std@@YAXAEBV?$_Vector_const_iterator@V?$_Vector_val@U?$_Simple_types@UDevice@c10@@@std@@@std@@@0@0@Z
	??$_Adl_verify_range@V?$_Vector_iterator@V?$_Vector_val@U?$_Simple_types@UDevice@c10@@@std@@@std@@@std@@V12@@std@@YAXAEBV?$_Vector_iterator@V?$_Vector_val@U?$_Simple_types@UDevice@c10@@@std@@@std@@@0@0@Z
	??$_Alias_construct_from@UAwaitType@c10@@@?$_Ptr_base@UAwaitType@c10@@@std@@IEAAXAEBV?$shared_ptr@UAwaitType@c10@@@1@PEAUAwaitType@c10@@@Z
	??$_Allocate@$0BA@U_Default_allocate_traits@std@@@std@@YAPEAX_K@Z
	??$_Allocate_at_least_helper@V?$allocator@D@std@@@std@@YAPEADAEAV?$allocator@D@0@AEA_K@Z
	??$_Allocate_at_least_helper@V?$allocator@I@std@@@std@@YAPEAIAEAV?$allocator@I@0@AEA_K@Z
	??$_Allocate_at_least_helper@V?$allocator@PEAUTF_Tensor@@@std@@@std@@YAPEAPEAUTF_Tensor@@AEAV?$allocator@PEAUTF_Tensor@@@0@AEA_K@Z
	??$_Allocate_at_least_helper@V?$allocator@UDevice@c10@@@std@@@std@@YAPEAUDevice@c10@@AEAV?$allocator@UDevice@c10@@@0@AEA_K@Z
	??$_Allocate_at_least_helper@V?$allocator@UEvent@c10@@@std@@@std@@YAPEAUEvent@c10@@AEAV?$allocator@UEvent@c10@@@0@AEA_K@Z
	??$_Allocate_at_least_helper@V?$allocator@UIValue@c10@@@std@@@std@@YAPEAUIValue@c10@@AEAV?$allocator@UIValue@c10@@@0@AEA_K@Z
	??$_Allocate_at_least_helper@V?$allocator@UTF_Output@@@std@@@std@@YAPEAUTF_Output@@AEAV?$allocator@UTF_Output@@@0@AEA_K@Z
	??$_Allocate_at_least_helper@V?$allocator@VStream@c10@@@std@@@std@@YAPEAVStream@c10@@AEAV?$allocator@VStream@c10@@@0@AEA_K@Z
	??$_Allocate_at_least_helper@V?$allocator@_J@std@@@std@@YAPEA_JAEAV?$allocator@_J@0@AEA_K@Z
	??$_Allocate_for_capacity@$0A@@?$basic_string@DU?$char_traits@D@std@@V?$allocator@D@2@@std@@CAPEADAEAV?$allocator@D@1@AEA_K@Z
	??$_Allocate_manually_vector_aligned@U_Default_allocate_traits@std@@@std@@YAPEAX_K@Z
	??$_Assign@UDevice@c10@@@?$_Optional_construct_base@UDevice@c10@@@std@@QEAAX$$QEAUDevice@c10@@@Z
	??$_Assign_counted_range@PEAUIValue@c10@@@?$vector@UIValue@c10@@V?$allocator@UIValue@c10@@@std@@@std@@AEAAXPEAUIValue@c10@@_K@Z
	??$_Assign_counted_range@PEBUIValue@c10@@@?$vector@UIValue@c10@@V?$allocator@UIValue@c10@@@std@@@std@@AEAAXPEBUIValue@c10@@_K@Z
	??$_Atomic_address_as@DU?$_Atomic_padded@_N@std@@@std@@YAPECDAEAU?$_Atomic_padded@_N@0@@Z
	??$_Atomic_address_as@DU?$_Atomic_padded@_N@std@@@std@@YAPEDDAEBU?$_Atomic_padded@_N@0@@Z
	??$_Atomic_address_as@HU?$_Atomic_padded@I@std@@@std@@YAPECHAEAU?$_Atomic_padded@I@0@@Z
	??$_Atomic_address_as@HU?$_Atomic_padded@I@std@@@std@@YAPEDHAEBU?$_Atomic_padded@I@0@@Z
	??$_Atomic_address_as@JU?$_Atomic_padded@I@std@@@std@@YAPECJAEAU?$_Atomic_padded@I@0@@Z
	??$_Atomic_address_as@_JU?$_Atomic_padded@PEBUDeviceGuardImplInterface@impl@c10@@@std@@@std@@YAPED_JAEBU?$_Atomic_padded@PEBUDeviceGuardImplInterface@impl@c10@@@0@@Z
	??$_Atomic_reinterpret_as@D_N@std@@YADAEB_N@Z
	??$_Atomic_reinterpret_as@HI@std@@YAHAEBI@Z
	??$_Atomic_reinterpret_as@JI@std@@YAJAEBI@Z
	??$_Bit_cast@_KT_Addr_storage@error_category@std@@$0A@@std@@YA_KAEBT_Addr_storage@error_category@0@@Z
	??$_Construct@$00PEBD@?$basic_string@DU?$char_traits@D@std@@V?$allocator@D@2@@std@@AEAAXQEBD_K@Z
	??$_Construct@AEAUDevice@c10@@@?$_Optional_construct_base@V?$InlineDeviceGuard@VVirtualGuardImpl@impl@c10@@@impl@c10@@@std@@QEAAAEAV?$InlineDeviceGuard@VVirtualGuardImpl@impl@c10@@@impl@c10@@AEAUDevice@4@@Z
	??$_Construct@UDevice@c10@@@?$_Optional_construct_base@UDevice@c10@@@std@@QEAAAEAUDevice@c10@@$$QEAU23@@Z
	??$_Construct@W4DeviceType@c10@@@?$_Optional_construct_base@VVirtualGuardImpl@impl@c10@@@std@@QEAAAEAVVirtualGuardImpl@impl@c10@@$$QEAW4DeviceType@4@@Z
	??$_Construct_from_weak@UCompilationUnit@jit@torch@@@?$_Ptr_base@UCompilationUnit@jit@torch@@@std@@IEAA_NAEBV?$weak_ptr@UCompilationUnit@jit@torch@@@1@@Z
	??$_Construct_in_place@PEADAEAPEAD@std@@YAXAEAPEAD0@Z
	??$_Construct_in_place@PEADAEBQEAD@std@@YAXAEAPEADAEBQEAD@Z
	??$_Construct_in_place@UDevice@c10@@AEBU12@@std@@YAXAEAUDevice@c10@@AEBU12@@Z
	??$_Construct_in_place@UDevice@c10@@U12@@std@@YAXAEAUDevice@c10@@$$QEAU12@@Z
	??$_Construct_in_place@UEvent@c10@@U12@@std@@YAXAEAUEvent@c10@@$$QEAU12@@Z
	??$_Construct_in_place@V?$InlineDeviceGuard@VVirtualGuardImpl@impl@c10@@@impl@c10@@AEAUDevice@3@@std@@YAXAEAV?$InlineDeviceGuard@VVirtualGuardImpl@impl@c10@@@impl@c10@@AEAUDevice@3@@Z
	??$_Construct_in_place@VStream@c10@@V12@@std@@YAXAEAVStream@c10@@$$QEAV12@@Z
	??$_Construct_in_place@VVirtualGuardImpl@impl@c10@@W4DeviceType@3@@std@@YAXAEAVVirtualGuardImpl@impl@c10@@$$QEAW4DeviceType@3@@Z
	??$_Construct_n@$$V@?$vector@PEAUTF_Tensor@@V?$allocator@PEAUTF_Tensor@@@std@@@std@@AEAAX_K@Z
	??$_Construct_n@$$V@?$vector@UTF_Output@@V?$allocator@UTF_Output@@@std@@@std@@AEAAX_K@Z
	??$_Construct_n@$$V@?$vector@_JV?$allocator@_J@std@@@std@@AEAAX_K@Z
	??$_Construct_n@AEBI@?$vector@IV?$allocator@I@std@@@std@@AEAAX_KAEBI@Z
	??$_Construct_n@AEBQEAUDevice@c10@@AEBQEAU12@@?$vector@UDevice@c10@@V?$allocator@UDevice@c10@@@std@@@std@@AEAAX_KAEBQEAUDevice@c10@@1@Z
	??$_Construct_n@AEBQEAUIValue@c10@@AEBQEAU12@@?$vector@UIValue@c10@@V?$allocator@UIValue@c10@@@std@@@std@@AEAAX_KAEBQEAUIValue@c10@@1@Z
	??$_Construct_n@AEBQEAUTF_Tensor@@@?$vector@PEAUTF_Tensor@@V?$allocator@PEAUTF_Tensor@@@std@@@std@@AEAAX_KAEBQEAUTF_Tensor@@@Z
	??$_Convert_size@_K_K@std@@YA_K_K@Z
	??$_Copy_backward_memmove@PEAUDevice@c10@@PEAU12@@std@@YAPEAUDevice@c10@@PEAU12@00@Z
	??$_Copy_construct_from@UCompilationUnit@jit@torch@@@?$_Ptr_base@UCompilationUnit@jit@torch@@@std@@IEAAXAEBV?$shared_ptr@UCompilationUnit@jit@torch@@@1@@Z
	??$_Copy_construct_from@UType@c10@@@?$_Ptr_base@UType@c10@@@std@@IEAAXAEBV?$shared_ptr@UType@c10@@@1@@Z
	??$_Copy_memmove@PEAIPEAI@std@@YAPEAIPEAI00@Z
	??$_Copy_memmove@PEAUDevice@c10@@PEAU12@@std@@YAPEAUDevice@c10@@PEAU12@00@Z
	??$_Copy_memmove@PEAVStream@c10@@PEAV12@@std@@YAPEAVStream@c10@@PEAV12@00@Z
	??$_Copy_memmove_tail@PEAI@std@@YAPEAIQEBDQEAI_K2@Z
	??$_Copy_memmove_tail@PEAUDevice@c10@@@std@@YAPEAUDevice@c10@@QEBDQEAU12@_K2@Z
	??$_Copy_memmove_tail@PEAVStream@c10@@@std@@YAPEAVStream@c10@@QEBDQEAV12@_K2@Z
	??$_Copy_n_unchecked4@PEAUIValue@c10@@_KPEAU12@@std@@YAPEAUIValue@c10@@PEAU12@_K0@Z
	??$_Copy_n_unchecked4@PEBUIValue@c10@@_KPEAU12@@std@@YAPEAUIValue@c10@@PEBU12@_KPEAU12@@Z
	??$_Copy_unchecked@PEBUDevice@c10@@PEBU12@V?$back_insert_iterator@V?$vector@UDevice@c10@@V?$allocator@UDevice@c10@@@std@@@std@@@std@@@std@@YA?AV?$back_insert_iterator@V?$vector@UDevice@c10@@V?$allocator@UDevice@c10@@@std@@@std@@@0@PEBUDevice@c10@@0V10@@Z
	??$_Deallocate@$0BA@@std@@YAXPEAX_K@Z
	??$_Destroy_in_place@PEAD@std@@YAXAEAPEAD@Z
	??$_Destroy_range@V?$allocator@I@std@@@std@@YAXPEAIQEAIAEAV?$allocator@I@0@@Z
	??$_Destroy_range@V?$allocator@PEAUTF_Tensor@@@std@@@std@@YAXPEAPEAUTF_Tensor@@QEAPEAU1@AEAV?$allocator@PEAUTF_Tensor@@@0@@Z
	??$_Destroy_range@V?$allocator@UDevice@c10@@@std@@@std@@YAXPEAUDevice@c10@@QEAU12@AEAV?$allocator@UDevice@c10@@@0@@Z
	??$_Destroy_range@V?$allocator@UEvent@c10@@@std@@@std@@YAXPEAUEvent@c10@@QEAU12@AEAV?$allocator@UEvent@c10@@@0@@Z
	??$_Destroy_range@V?$allocator@UFutureCallback@Future@ivalue@c10@@@std@@@std@@YAXPEAUFutureCallback@Future@ivalue@c10@@QEAU1234@AEAV?$allocator@UFutureCallback@Future@ivalue@c10@@@0@@Z
	??$_Destroy_range@V?$allocator@UIValue@c10@@@std@@@std@@YAXPEAUIValue@c10@@QEAU12@AEAV?$allocator@UIValue@c10@@@0@@Z
	??$_Destroy_range@V?$allocator@UTF_Output@@@std@@@std@@YAXPEAUTF_Output@@QEAU1@AEAV?$allocator@UTF_Output@@@0@@Z
	??$_Destroy_range@V?$allocator@V?$weak_intrusive_ptr@UStorageImpl@c10@@U?$intrusive_target_default_null_type@UStorageImpl@c10@@@detail@2@@c10@@@std@@@std@@YAXPEAV?$weak_intrusive_ptr@UStorageImpl@c10@@U?$intrusive_target_default_null_type@UStorageImpl@c10@@@detail@2@@c10@@QEAV12@AEAV?$allocator@V?$weak_intrusive_ptr@UStorageImpl@c10@@U?$intrusive_target_default_null_type@UStorageImpl@c10@@@detail@2@@c10@@@0@@Z
	??$_Destroy_range@V?$allocator@VStream@c10@@@std@@@std@@YAXPEAVStream@c10@@QEAV12@AEAV?$allocator@VStream@c10@@@0@@Z
	??$_Destroy_range@V?$allocator@VTensor@at@@@std@@@std@@YAXPEAVTensor@at@@QEAV12@AEAV?$allocator@VTensor@at@@@0@@Z
	??$_Destroy_range@V?$allocator@_J@std@@@std@@YAXPEA_JQEA_JAEAV?$allocator@_J@0@@Z
	??$_Emplace_back@$$V@?$_Uninitialized_backout_al@V?$allocator@PEAUTF_Tensor@@@std@@@std@@QEAAXXZ
	??$_Emplace_back@$$V@?$_Uninitialized_backout_al@V?$allocator@UIValue@c10@@@std@@@std@@QEAAXXZ
	??$_Emplace_back@$$V@?$_Uninitialized_backout_al@V?$allocator@UTF_Output@@@std@@@std@@QEAAXXZ
	??$_Emplace_back@$$V@?$_Uninitialized_backout_al@V?$allocator@_J@std@@@std@@QEAAXXZ
	??$_Emplace_back@AEAUDevice@c10@@@?$_Uninitialized_backout_al@V?$allocator@UDevice@c10@@@std@@@std@@QEAAXAEAUDevice@c10@@@Z
	??$_Emplace_back@AEAUIValue@c10@@@?$_Uninitialized_backout_al@V?$allocator@UIValue@c10@@@std@@@std@@QEAAXAEAUIValue@c10@@@Z
	??$_Emplace_back@AEBI@?$_Uninitialized_backout_al@V?$allocator@I@std@@@std@@QEAAXAEBI@Z
	??$_Emplace_back@AEBQEAUTF_Tensor@@@?$_Uninitialized_backout_al@V?$allocator@PEAUTF_Tensor@@@std@@@std@@QEAAXAEBQEAUTF_Tensor@@@Z
	??$_Emplace_back@AEBUDevice@c10@@@?$_Uninitialized_backout_al@V?$allocator@UDevice@c10@@@std@@@std@@QEAAXAEBUDevice@c10@@@Z
	??$_Emplace_back@AEBUIValue@c10@@@?$_Uninitialized_backout_al@V?$allocator@UIValue@c10@@@std@@@std@@QEAAXAEBUIValue@c10@@@Z
	??$_Emplace_back@UDevice@c10@@@?$_Uninitialized_backout_al@V?$allocator@UDevice@c10@@@std@@@std@@QEAAX$$QEAUDevice@c10@@@Z
	??$_Emplace_back@UEvent@c10@@@?$_Uninitialized_backout_al@V?$allocator@UEvent@c10@@@std@@@std@@QEAAX$$QEAUEvent@c10@@@Z
	??$_Emplace_back@UIValue@c10@@@?$_Uninitialized_backout_al@V?$allocator@UIValue@c10@@@std@@@std@@QEAAX$$QEAUIValue@c10@@@Z
	??$_Emplace_back@VStream@c10@@@?$_Uninitialized_backout_al@V?$allocator@VStream@c10@@@std@@@std@@QEAAX$$QEAVStream@c10@@@Z
	??$_Emplace_back_with_unused_capacity@AEBUDevice@c10@@@?$vector@UDevice@c10@@V?$allocator@UDevice@c10@@@std@@@std@@AEAAAEAUDevice@c10@@AEBU23@@Z
	??$_Emplace_back_with_unused_capacity@UEvent@c10@@@?$vector@UEvent@c10@@V?$allocator@UEvent@c10@@@std@@@std@@AEAAAEAUEvent@c10@@$$QEAU23@@Z
	??$_Emplace_back_with_unused_capacity@VStream@c10@@@?$vector@VStream@c10@@V?$allocator@VStream@c10@@@std@@@std@@AEAAAEAVStream@c10@@$$QEAV23@@Z
	??$_Emplace_back_with_unused_capacity@W4DeviceType@c10@@AEAC@?$vector@UDevice@c10@@V?$allocator@UDevice@c10@@@std@@@std@@AEAAAEAUDevice@c10@@$$QEAW4DeviceType@3@AEAC@Z
	??$_Emplace_one_at_back@AEBUDevice@c10@@@?$vector@UDevice@c10@@V?$allocator@UDevice@c10@@@std@@@std@@AEAAAEAUDevice@c10@@AEBU23@@Z
	??$_Emplace_one_at_back@UEvent@c10@@@?$vector@UEvent@c10@@V?$allocator@UEvent@c10@@@std@@@std@@AEAAAEAUEvent@c10@@$$QEAU23@@Z
	??$_Emplace_one_at_back@VStream@c10@@@?$vector@VStream@c10@@V?$allocator@VStream@c10@@@std@@@std@@AEAAAEAVStream@c10@@$$QEAV23@@Z
	??$_Emplace_one_at_back@W4DeviceType@c10@@AEAC@?$vector@UDevice@c10@@V?$allocator@UDevice@c10@@@std@@@std@@AEAAAEAUDevice@c10@@$$QEAW4DeviceType@3@AEAC@Z
	??$_Emplace_reallocate@AEBUDevice@c10@@@?$vector@UDevice@c10@@V?$allocator@UDevice@c10@@@std@@@std@@AEAAPEAUDevice@c10@@QEAU23@AEBU23@@Z
	??$_Emplace_reallocate@UEvent@c10@@@?$vector@UEvent@c10@@V?$allocator@UEvent@c10@@@std@@@std@@AEAAPEAUEvent@c10@@QEAU23@$$QEAU23@@Z
	??$_Emplace_reallocate@VStream@c10@@@?$vector@VStream@c10@@V?$allocator@VStream@c10@@@std@@@std@@AEAAPEAVStream@c10@@QEAV23@$$QEAV23@@Z
	??$_Emplace_reallocate@W4DeviceType@c10@@AEAC@?$vector@UDevice@c10@@V?$allocator@UDevice@c10@@@std@@@std@@AEAAPEAUDevice@c10@@QEAU23@$$QEAW4DeviceType@3@AEAC@Z
	??$_Fill_zero_memset@PEAI@std@@YAXPEAI_K@Z
	??$_Fill_zero_memset@PEAPEAUTF_Tensor@@@std@@YAXPEAPEAUTF_Tensor@@_K@Z
	??$_Get_size_of_n@$00@std@@YA_K_K@Z
	??$_Get_size_of_n@$01@std@@YA_K_K@Z
	??$_Get_size_of_n@$03@std@@YA_K_K@Z
	??$_Get_size_of_n@$07@std@@YA_K_K@Z
	??$_Get_size_of_n@$0BA@@std@@YA_K_K@Z
	??$_Get_size_of_n@$0CI@@std@@YA_K_K@Z
	??$_Get_unwrapped@AEAV?$_Vector_const_iterator@V?$_Vector_val@U?$_Simple_types@UDevice@c10@@@std@@@std@@@std@@@std@@YA?A_TAEAV?$_Vector_const_iterator@V?$_Vector_val@U?$_Simple_types@UDevice@c10@@@std@@@std@@@0@@Z
	??$_Get_unwrapped@AEBQEAUDevice@c10@@@std@@YA?A_TAEBQEAUDevice@c10@@@Z
	??$_Get_unwrapped@AEBQEAUEvent@c10@@@std@@YA?A_TAEBQEAUEvent@c10@@@Z
	??$_Get_unwrapped@AEBQEAUIValue@c10@@@std@@YA?A_TAEBQEAUIValue@c10@@@Z
	??$_Get_unwrapped@AEBQEAVStream@c10@@@std@@YA?A_TAEBQEAVStream@c10@@@Z
	??$_Get_unwrapped@AEBQEA_J@std@@YA?A_TAEBQEA_J@Z
	??$_Get_unwrapped@AEBV?$_Vector_iterator@V?$_Vector_val@U?$_Simple_types@UDevice@c10@@@std@@@std@@@std@@@std@@YA?A_TAEBV?$_Vector_iterator@V?$_Vector_val@U?$_Simple_types@UDevice@c10@@@std@@@std@@@0@@Z
	??$_Get_unwrapped@PEAUDevice@c10@@@std@@YA?A_T$$QEAPEAUDevice@c10@@@Z
	??$_Get_unwrapped@PEAUIValue@c10@@@std@@YA?A_T$$QEAPEAUIValue@c10@@@Z
	??$_Get_unwrapped@PEBUIValue@c10@@@std@@YA?A_T$$QEAPEBUIValue@c10@@@Z
	??$_Get_unwrapped_unverified@AEAV?$back_insert_iterator@V?$vector@UDevice@c10@@V?$allocator@UDevice@c10@@@std@@@std@@@std@@@std@@YA?A_TAEAV?$back_insert_iterator@V?$vector@UDevice@c10@@V?$allocator@UDevice@c10@@@std@@@std@@@0@@Z
	??$_Getvals@_W@?$time_get@DV?$istreambuf_iterator@DU?$char_traits@D@std@@@std@@@std@@IEAAX_WAEBV_Locinfo@1@@Z
	??$_Getvals@_W@?$time_get@_WV?$istreambuf_iterator@_WU?$char_traits@_W@std@@@std@@@std@@IEAAX_WAEBV_Locinfo@1@@Z
	??$_Guess_median_unchecked@PEAUDevice@c10@@V<lambda_1>@?1??sortAndDeduplicateDevices@Future@ivalue@2@CA?AV?$vector@UDevice@c10@@V?$allocator@UDevice@c10@@@std@@@std@@AEBVVirtualGuardImpl@impl@2@V78@@Z@@std@@YAXPEAUDevice@c10@@00V<lambda_1>@?1??sortAndDeduplicateDevices@Future@ivalue@2@CA?AV?$vector@UDevice@c10@@V?$allocator@UDevice@c10@@@std@@@0@AEBVVirtualGuardImpl@impl@2@V70@@Z@@Z
	??$_Immortalize_memcpy_image@V_Generic_error_category@std@@@std@@YAAEBV_Generic_error_category@0@XZ
	??$_Insert_string@DU?$char_traits@D@std@@_K@std@@YAAEAV?$basic_ostream@DU?$char_traits@D@std@@@0@AEAV10@QEBD_K@Z
	??$_Insertion_sort_unchecked@PEAUDevice@c10@@V<lambda_1>@?1??sortAndDeduplicateDevices@Future@ivalue@2@CA?AV?$vector@UDevice@c10@@V?$allocator@UDevice@c10@@@std@@@std@@AEBVVirtualGuardImpl@impl@2@V78@@Z@@std@@YAPEAUDevice@c10@@QEAU12@0V<lambda_1>@?1??sortAndDeduplicateDevices@Future@ivalue@2@CA?AV?$vector@UDevice@c10@@V?$allocator@UDevice@c10@@@std@@@0@AEBVVirtualGuardImpl@impl@2@V70@@Z@@Z
	??$_Is_all_bits_zero@I@std@@YA_NAEBI@Z
	??$_Is_all_bits_zero@PEAUTF_Tensor@@@std@@YA_NAEBQEAUTF_Tensor@@@Z
	??$_Make_heap_unchecked@PEAUDevice@c10@@V<lambda_1>@?1??sortAndDeduplicateDevices@Future@ivalue@2@CA?AV?$vector@UDevice@c10@@V?$allocator@UDevice@c10@@@std@@@std@@AEBVVirtualGuardImpl@impl@2@V78@@Z@@std@@YAXPEAUDevice@c10@@0V<lambda_1>@?1??sortAndDeduplicateDevices@Future@ivalue@2@CA?AV?$vector@UDevice@c10@@V?$allocator@UDevice@c10@@@std@@@0@AEBVVirtualGuardImpl@impl@2@V70@@Z@@Z
	??$_Max_limit@_J@std@@YA_JXZ
	??$_Med3_unchecked@PEAUDevice@c10@@V<lambda_1>@?1??sortAndDeduplicateDevices@Future@ivalue@2@CA?AV?$vector@UDevice@c10@@V?$allocator@UDevice@c10@@@std@@@std@@AEBVVirtualGuardImpl@impl@2@V78@@Z@@std@@YAXPEAUDevice@c10@@00V<lambda_1>@?1??sortAndDeduplicateDevices@Future@ivalue@2@CA?AV?$vector@UDevice@c10@@V?$allocator@UDevice@c10@@@std@@@0@AEBVVirtualGuardImpl@impl@2@V70@@Z@@Z
	??$_Move_backward_unchecked@PEAUDevice@c10@@PEAU12@@std@@YAPEAUDevice@c10@@PEAU12@00@Z
	??$_Move_construct_from@UAwaitType@c10@@@?$_Ptr_base@UType@c10@@@std@@IEAAX$$QEAV?$_Ptr_base@UAwaitType@c10@@@1@@Z
	??$_Move_construct_from@UType@c10@@@?$_Ptr_base@UType@c10@@@std@@IEAAX$$QEAV01@@Z
	??$_Move_unchecked@PEAIPEAI@std@@YAPEAIPEAI00@Z
	??$_Move_unchecked@PEAUIValue@c10@@PEAU12@@std@@YAPEAUIValue@c10@@PEAU12@00@Z
	??$_Next_iter@PEAUDevice@c10@@@std@@YAPEAUDevice@c10@@PEAU12@@Z
	??$_Partition_by_median_guess_unchecked@PEAUDevice@c10@@V<lambda_1>@?1??sortAndDeduplicateDevices@Future@ivalue@2@CA?AV?$vector@UDevice@c10@@V?$allocator@UDevice@c10@@@std@@@std@@AEBVVirtualGuardImpl@impl@2@V78@@Z@@std@@YA?AU?$pair@PEAUDevice@c10@@PEAU12@@0@PEAUDevice@c10@@0V<lambda_1>@?1??sortAndDeduplicateDevices@Future@ivalue@3@CA?AV?$vector@UDevice@c10@@V?$allocator@UDevice@c10@@@std@@@0@AEBVVirtualGuardImpl@impl@3@V80@@Z@@Z
	??$_Pass_fn@V<lambda_1>@?1??sortAndDeduplicateDevices@Future@ivalue@c10@@CA?AV?$vector@UDevice@c10@@V?$allocator@UDevice@c10@@@std@@@std@@AEBVVirtualGuardImpl@impl@5@V67@@Z@@std@@YA?A_PAEAV<lambda_1>@?1??sortAndDeduplicateDevices@Future@ivalue@c10@@CA?AV?$vector@UDevice@c10@@V?$allocator@UDevice@c10@@@std@@@0@AEBVVirtualGuardImpl@impl@5@V60@@Z@@Z
	??$_Pocca@V?$allocator@UIValue@c10@@@std@@@std@@YAXAEAV?$allocator@UIValue@c10@@@0@AEBV10@@Z
	??$_Pocma@V?$allocator@UDevice@c10@@@std@@@std@@YAXAEAV?$allocator@UDevice@c10@@@0@0@Z
	??$_Pocma@V?$allocator@UIValue@c10@@@std@@@std@@YAXAEAV?$allocator@UIValue@c10@@@0@0@Z
	??$_Pocma@V?$allocator@V?$weak_intrusive_ptr@UStorageImpl@c10@@U?$intrusive_target_default_null_type@UStorageImpl@c10@@@detail@2@@c10@@@std@@@std@@YAXAEAV?$allocator@V?$weak_intrusive_ptr@UStorageImpl@c10@@U?$intrusive_target_default_null_type@UStorageImpl@c10@@@detail@2@@c10@@@0@0@Z
	??$_Pocs@V?$allocator@UFutureCallback@Future@ivalue@c10@@@std@@@std@@YAXAEAV?$allocator@UFutureCallback@Future@ivalue@c10@@@0@0@Z
	??$_Pop_heap_hole_by_index@PEAUDevice@c10@@U12@V<lambda_1>@?1??sortAndDeduplicateDevices@Future@ivalue@2@CA?AV?$vector@UDevice@c10@@V?$allocator@UDevice@c10@@@std@@@std@@AEBVVirtualGuardImpl@impl@2@V78@@Z@@std@@YAXPEAUDevice@c10@@_J1$$QEAU12@V<lambda_1>@?1??sortAndDeduplicateDevices@Future@ivalue@2@CA?AV?$vector@UDevice@c10@@V?$allocator@UDevice@c10@@@std@@@0@AEBVVirtualGuardImpl@impl@2@V70@@Z@@Z
	??$_Pop_heap_hole_unchecked@PEAUDevice@c10@@U12@V<lambda_1>@?1??sortAndDeduplicateDevices@Future@ivalue@2@CA?AV?$vector@UDevice@c10@@V?$allocator@UDevice@c10@@@std@@@std@@AEBVVirtualGuardImpl@impl@2@V78@@Z@@std@@YAXPEAUDevice@c10@@00$$QEAU12@V<lambda_1>@?1??sortAndDeduplicateDevices@Future@ivalue@2@CA?AV?$vector@UDevice@c10@@V?$allocator@UDevice@c10@@@std@@@0@AEBVVirtualGuardImpl@impl@2@V70@@Z@@Z
	??$_Pop_heap_unchecked@PEAUDevice@c10@@V<lambda_1>@?1??sortAndDeduplicateDevices@Future@ivalue@2@CA?AV?$vector@UDevice@c10@@V?$allocator@UDevice@c10@@@std@@@std@@AEBVVirtualGuardImpl@impl@2@V78@@Z@@std@@YAXPEAUDevice@c10@@0V<lambda_1>@?1??sortAndDeduplicateDevices@Future@ivalue@2@CA?AV?$vector@UDevice@c10@@V?$allocator@UDevice@c10@@@std@@@0@AEBVVirtualGuardImpl@impl@2@V70@@Z@@Z
	??$_Prev_iter@PEAUDevice@c10@@@std@@YAPEAUDevice@c10@@PEAU12@@Z
	??$_Push_heap_by_index@PEAUDevice@c10@@U12@V<lambda_1>@?1??sortAndDeduplicateDevices@Future@ivalue@2@CA?AV?$vector@UDevice@c10@@V?$allocator@UDevice@c10@@@std@@@std@@AEBVVirtualGuardImpl@impl@2@V78@@Z@@std@@YAXPEAUDevice@c10@@_J1$$QEAU12@V<lambda_1>@?1??sortAndDeduplicateDevices@Future@ivalue@2@CA?AV?$vector@UDevice@c10@@V?$allocator@UDevice@c10@@@std@@@0@AEBVVirtualGuardImpl@impl@2@V70@@Z@@Z
	??$_Reallocate@$0A@@?$vector@VStream@c10@@V?$allocator@VStream@c10@@@std@@@std@@AEAAXAEA_K@Z
	??$_Reallocate_for@V<lambda_1>@?1??assign@?$basic_string@DU?$char_traits@D@std@@V?$allocator@D@2@@std@@QEAAAEAV34@QEBD_K@Z@PEBD@?$basic_string@DU?$char_traits@D@std@@V?$allocator@D@2@@std@@AEAAAEAV01@_KV<lambda_1>@?1??assign@01@QEAAAEAV01@QEBD0@Z@PEBD@Z
	??$_Reallocate_grow_by@V<lambda_1>@?1??append@?$basic_string@DU?$char_traits@D@std@@V?$allocator@D@2@@std@@QEAAAEAV34@QEBD_K@Z@PEBD_K@?$basic_string@DU?$char_traits@D@std@@V?$allocator@D@2@@std@@AEAAAEAV01@_KV<lambda_1>@?1??append@01@QEAAAEAV01@QEBD0@Z@PEBD_K@Z
	??$_Resize@UDevice@c10@@@?$vector@UDevice@c10@@V?$allocator@UDevice@c10@@@std@@@std@@AEAAX_KAEBUDevice@c10@@@Z
	??$_Resize@U_Value_init_tag@std@@@?$vector@UIValue@c10@@V?$allocator@UIValue@c10@@@std@@@std@@AEAAX_KAEBU_Value_init_tag@1@@Z
	??$_Resize_reallocate@UDevice@c10@@@?$vector@UDevice@c10@@V?$allocator@UDevice@c10@@@std@@@std@@AEAAX_KAEBUDevice@c10@@@Z
	??$_Resize_reallocate@U_Value_init_tag@std@@@?$vector@UIValue@c10@@V?$allocator@UIValue@c10@@@std@@@std@@AEAAX_KAEBU_Value_init_tag@1@@Z
	??$_Seek_wrapped@V?$back_insert_iterator@V?$vector@UDevice@c10@@V?$allocator@UDevice@c10@@@std@@@std@@@std@@V12@@std@@YAXAEAV?$back_insert_iterator@V?$vector@UDevice@c10@@V?$allocator@UDevice@c10@@@std@@@std@@@0@$$QEAV10@@Z
	??$_Set_ptr_rep_and_enable_shared@UAwaitType@c10@@@?$shared_ptr@UAwaitType@c10@@@std@@AEAAXQEAUAwaitType@c10@@QEAV_Ref_count_base@1@@Z
	??$_Sort_heap_unchecked@PEAUDevice@c10@@V<lambda_1>@?1??sortAndDeduplicateDevices@Future@ivalue@2@CA?AV?$vector@UDevice@c10@@V?$allocator@UDevice@c10@@@std@@@std@@AEBVVirtualGuardImpl@impl@2@V78@@Z@@std@@YAXPEAUDevice@c10@@0V<lambda_1>@?1??sortAndDeduplicateDevices@Future@ivalue@2@CA?AV?$vector@UDevice@c10@@V?$allocator@UDevice@c10@@@std@@@0@AEBVVirtualGuardImpl@impl@2@V70@@Z@@Z
	??$_Sort_unchecked@PEAUDevice@c10@@V<lambda_1>@?1??sortAndDeduplicateDevices@Future@ivalue@2@CA?AV?$vector@UDevice@c10@@V?$allocator@UDevice@c10@@@std@@@std@@AEBVVirtualGuardImpl@impl@2@V78@@Z@@std@@YAXPEAUDevice@c10@@0_JV<lambda_1>@?1??sortAndDeduplicateDevices@Future@ivalue@2@CA?AV?$vector@UDevice@c10@@V?$allocator@UDevice@c10@@@std@@@0@AEBVVirtualGuardImpl@impl@2@V70@@Z@@Z
	??$_To_address@PEAI@std@@YA?A_PAEBQEAI@Z
	??$_To_address@PEAPEAUTF_Tensor@@@std@@YA?A_PAEBQEAPEAUTF_Tensor@@@Z
	??$_To_address@PEAUDevice@c10@@@std@@YA?A_PAEBQEAUDevice@c10@@@Z
	??$_To_address@PEAVStream@c10@@@std@@YA?A_PAEBQEAVStream@c10@@@Z
	??$_To_address@PEA_J@std@@YA?A_PAEBQEA_J@Z
	??$_Unfancy@D@std@@YAPEADPEAD@Z
	??$_Unfancy@I@std@@YAPEAIPEAI@Z
	??$_Unfancy@PEAUTF_Tensor@@@std@@YAPEAPEAUTF_Tensor@@PEAPEAU1@@Z
	??$_Unfancy@UDevice@c10@@@std@@YAPEAUDevice@c10@@PEAU12@@Z
	??$_Unfancy@UEvent@c10@@@std@@YAPEAUEvent@c10@@PEAU12@@Z
	??$_Unfancy@UFutureCallback@Future@ivalue@c10@@@std@@YAPEAUFutureCallback@Future@ivalue@c10@@PEAU1234@@Z
	??$_Unfancy@UIValue@c10@@@std@@YAPEAUIValue@c10@@PEAU12@@Z
	??$_Unfancy@UTF_Output@@@std@@YAPEAUTF_Output@@PEAU1@@Z
	??$_Unfancy@V?$weak_intrusive_ptr@UStorageImpl@c10@@U?$intrusive_target_default_null_type@UStorageImpl@c10@@@detail@2@@c10@@@std@@YAPEAV?$weak_intrusive_ptr@UStorageImpl@c10@@U?$intrusive_target_default_null_type@UStorageImpl@c10@@@detail@2@@c10@@PEAV12@@Z
	??$_Unfancy@VStream@c10@@@std@@YAPEAVStream@c10@@PEAV12@@Z
	??$_Unfancy@VTensor@at@@@std@@YAPEAVTensor@at@@PEAV12@@Z
	??$_Unfancy@_J@std@@YAPEA_JPEA_J@Z
	??$_Unfancy_maybe_null@I@std@@YAPEAIPEAI@Z
	??$_Unfancy_maybe_null@PEAUTF_Tensor@@@std@@YAPEAPEAUTF_Tensor@@PEAPEAU1@@Z
	??$_Unfancy_maybe_null@UDevice@c10@@@std@@YAPEAUDevice@c10@@PEAU12@@Z
	??$_Unfancy_maybe_null@UEvent@c10@@@std@@YAPEAUEvent@c10@@PEAU12@@Z
	??$_Unfancy_maybe_null@UFutureCallback@Future@ivalue@c10@@@std@@YAPEAUFutureCallback@Future@ivalue@c10@@PEAU1234@@Z
	??$_Unfancy_maybe_null@UTF_Output@@@std@@YAPEAUTF_Output@@PEAU1@@Z
	??$_Unfancy_maybe_null@V?$weak_intrusive_ptr@UStorageImpl@c10@@U?$intrusive_target_default_null_type@UStorageImpl@c10@@@detail@2@@c10@@@std@@YAPEAV?$weak_intrusive_ptr@UStorageImpl@c10@@U?$intrusive_target_default_null_type@UStorageImpl@c10@@@detail@2@@c10@@PEAV12@@Z
	??$_Unfancy_maybe_null@VStream@c10@@@std@@YAPEAVStream@c10@@PEAV12@@Z
	??$_Unfancy_maybe_null@VTensor@at@@@std@@YAPEAVTensor@at@@PEAV12@@Z
	??$_Unfancy_maybe_null@_J@std@@YAPEA_JPEA_J@Z
	??$_Uninitialized_copy@PEAUDevice@c10@@PEAU12@V?$allocator@UDevice@c10@@@std@@@std@@YAPEAUDevice@c10@@PEAU12@00AEAV?$allocator@UDevice@c10@@@0@@Z
	??$_Uninitialized_copy@PEAUIValue@c10@@PEAU12@V?$allocator@UIValue@c10@@@std@@@std@@YAPEAUIValue@c10@@PEAU12@00AEAV?$allocator@UIValue@c10@@@0@@Z
	??$_Uninitialized_copy_n@PEAUIValue@c10@@V?$allocator@UIValue@c10@@@std@@@std@@YAPEAUIValue@c10@@PEAU12@_K0AEAV?$allocator@UIValue@c10@@@0@@Z
	??$_Uninitialized_copy_n@PEBUIValue@c10@@V?$allocator@UIValue@c10@@@std@@@std@@YAPEAUIValue@c10@@PEBU12@_KPEAU12@AEAV?$allocator@UIValue@c10@@@0@@Z
	??$_Uninitialized_fill_n@V?$allocator@I@std@@@std@@YAPEAIPEAI_KAEBIAEAV?$allocator@I@0@@Z
	??$_Uninitialized_fill_n@V?$allocator@PEAUTF_Tensor@@@std@@@std@@YAPEAPEAUTF_Tensor@@PEAPEAU1@_KAEBQEAU1@AEAV?$allocator@PEAUTF_Tensor@@@0@@Z
	??$_Uninitialized_fill_n@V?$allocator@UDevice@c10@@@std@@@std@@YAPEAUDevice@c10@@PEAU12@_KAEBU12@AEAV?$allocator@UDevice@c10@@@0@@Z
	??$_Uninitialized_move@PEAUDevice@c10@@V?$allocator@UDevice@c10@@@std@@@std@@YAPEAUDevice@c10@@QEAU12@0PEAU12@AEAV?$allocator@UDevice@c10@@@0@@Z
	??$_Uninitialized_move@PEAUEvent@c10@@V?$allocator@UEvent@c10@@@std@@@std@@YAPEAUEvent@c10@@QEAU12@0PEAU12@AEAV?$allocator@UEvent@c10@@@0@@Z
	??$_Uninitialized_move@PEAUIValue@c10@@V?$allocator@UIValue@c10@@@std@@@std@@YAPEAUIValue@c10@@QEAU12@0PEAU12@AEAV?$allocator@UIValue@c10@@@0@@Z
	??$_Uninitialized_move@PEAVStream@c10@@V?$allocator@VStream@c10@@@std@@@std@@YAPEAVStream@c10@@QEAV12@0PEAV12@AEAV?$allocator@VStream@c10@@@0@@Z
	??$_Uninitialized_value_construct_n@V?$allocator@PEAUTF_Tensor@@@std@@@std@@YAPEAPEAUTF_Tensor@@PEAPEAU1@_KAEAV?$allocator@PEAUTF_Tensor@@@0@@Z
	??$_Uninitialized_value_construct_n@V?$allocator@UIValue@c10@@@std@@@std@@YAPEAUIValue@c10@@PEAU12@_KAEAV?$allocator@UIValue@c10@@@0@@Z
	??$_Uninitialized_value_construct_n@V?$allocator@UTF_Output@@@std@@@std@@YAPEAUTF_Output@@PEAU1@_KAEAV?$allocator@UTF_Output@@@0@@Z
	??$_Uninitialized_value_construct_n@V?$allocator@_J@std@@@std@@YAPEA_JPEA_J_KAEAV?$allocator@_J@0@@Z
	??$_Weakly_construct_from@UAwaitType@c10@@@?$_Ptr_base@USharedType@c10@@@std@@IEAAXAEBV?$_Ptr_base@UAwaitType@c10@@@1@@Z
	??$_Weakly_construct_from@UCompilationUnit@jit@torch@@@?$_Ptr_base@UCompilationUnit@jit@torch@@@std@@IEAAXAEBV01@@Z
	??$_Zero_range@PEAPEAUTF_Tensor@@@std@@YAPEAPEAUTF_Tensor@@QEAPEAU1@0@Z
	??$_Zero_range@PEA_J@std@@YAPEA_JQEA_J0@Z
	??$_str@J@detail@c10@@YAAEAV?$basic_ostream@DU?$char_traits@D@std@@@std@@AEAV23@AEBJ@Z
	??$_str@PEBD@detail@c10@@YAAEAV?$basic_ostream@DU?$char_traits@D@std@@@std@@AEAV23@AEBQEBD@Z
	??$_str@PEBDJ@detail@c10@@YAAEAV?$basic_ostream@DU?$char_traits@D@std@@@std@@AEAV23@AEBQEBDAEBJ@Z
	??$_str@PEBDPEBDV?$basic_string@DU?$char_traits@D@std@@V?$allocator@D@2@@std@@@detail@c10@@YAAEAV?$basic_ostream@DU?$char_traits@D@std@@@std@@AEAV23@AEBQEBD1AEBV?$basic_string@DU?$char_traits@D@std@@V?$allocator@D@2@@3@@Z
	??$_str@PEBDUDevice@c10@@@detail@c10@@YAAEAV?$basic_ostream@DU?$char_traits@D@std@@@std@@AEAV23@AEBQEBDAEBUDevice@1@@Z
	??$_str@PEBDUDevice@c10@@PEBDU12@@detail@c10@@YAAEAV?$basic_ostream@DU?$char_traits@D@std@@@std@@AEAV23@AEBQEBDAEBUDevice@1@12@Z
	??$_str@PEBDUDevice@c10@@PEBD_KPEBDU12@@detail@c10@@YAAEAV?$basic_ostream@DU?$char_traits@D@std@@@std@@AEAV23@AEBQEBDAEBUDevice@1@1AEB_K12@Z
	??$_str@PEBDV?$basic_string@DU?$char_traits@D@std@@V?$allocator@D@2@@std@@@detail@c10@@YAAEAV?$basic_ostream@DU?$char_traits@D@std@@@std@@AEAV23@AEBQEBDAEBV?$basic_string@DU?$char_traits@D@std@@V?$allocator@D@2@@3@@Z
	??$_str@PEBDV?$basic_string@DU?$char_traits@D@std@@V?$allocator@D@2@@std@@PEBD@detail@c10@@YAAEAV?$basic_ostream@DU?$char_traits@D@std@@@std@@AEAV23@AEBQEBDAEBV?$basic_string@DU?$char_traits@D@std@@V?$allocator@D@2@@3@1@Z
	??$_str@PEBDV?$basic_string@DU?$char_traits@D@std@@V?$allocator@D@2@@std@@PEBDV12@@detail@c10@@YAAEAV?$basic_ostream@DU?$char_traits@D@std@@@std@@AEAV23@AEBQEBDAEBV?$basic_string@DU?$char_traits@D@std@@V?$allocator@D@2@@3@12@Z
	??$_str@PEBDV?$basic_string@DU?$char_traits@D@std@@V?$allocator@D@2@@std@@PEBDV12@PEBD@detail@c10@@YAAEAV?$basic_ostream@DU?$char_traits@D@std@@@std@@AEAV23@AEBQEBDAEBV?$basic_string@DU?$char_traits@D@std@@V?$allocator@D@2@@3@121@Z
	??$_str@PEBDW4DeviceType@c10@@PEBD@detail@c10@@YAAEAV?$basic_ostream@DU?$char_traits@D@std@@@std@@AEAV23@AEBQEBDAEBW4DeviceType@1@1@Z
	??$_str@PEBDW4DeviceType@c10@@PEBDUDevice@2@@detail@c10@@YAAEAV?$basic_ostream@DU?$char_traits@D@std@@@std@@AEAV23@AEBQEBDAEBW4DeviceType@1@1AEBUDevice@1@@Z
	??$_str@PEBD_KPEBDUDevice@c10@@@detail@c10@@YAAEAV?$basic_ostream@DU?$char_traits@D@std@@@std@@AEAV23@AEBQEBDAEB_K1AEBUDevice@1@@Z
	??$_str@UDevice@c10@@@detail@c10@@YAAEAV?$basic_ostream@DU?$char_traits@D@std@@@std@@AEAV23@AEBUDevice@1@@Z
	??$_str@UDevice@c10@@PEBDU12@@detail@c10@@YAAEAV?$basic_ostream@DU?$char_traits@D@std@@@std@@AEAV23@AEBUDevice@1@AEBQEBD1@Z
	??$_str@UDevice@c10@@PEBD_KPEBDU12@@detail@c10@@YAAEAV?$basic_ostream@DU?$char_traits@D@std@@@std@@AEAV23@AEBUDevice@1@AEBQEBDAEB_K21@Z
	??$_str@V?$basic_string@DU?$char_traits@D@std@@V?$allocator@D@2@@std@@@detail@c10@@YAAEAV?$basic_ostream@DU?$char_traits@D@std@@@std@@AEAV23@AEBV?$basic_string@DU?$char_traits@D@std@@V?$allocator@D@2@@3@@Z
	??$_str@V?$basic_string@DU?$char_traits@D@std@@V?$allocator@D@2@@std@@PEBD@detail@c10@@YAAEAV?$basic_ostream@DU?$char_traits@D@std@@@std@@AEAV23@AEBV?$basic_string@DU?$char_traits@D@std@@V?$allocator@D@2@@3@AEBQEBD@Z
	??$_str@V?$basic_string@DU?$char_traits@D@std@@V?$allocator@D@2@@std@@PEBDV12@@detail@c10@@YAAEAV?$basic_ostream@DU?$char_traits@D@std@@@std@@AEAV23@AEBV?$basic_string@DU?$char_traits@D@std@@V?$allocator@D@2@@3@AEBQEBD1@Z
	??$_str@V?$basic_string@DU?$char_traits@D@std@@V?$allocator@D@2@@std@@PEBDV12@PEBD@detail@c10@@YAAEAV?$basic_ostream@DU?$char_traits@D@std@@@std@@AEAV23@AEBV?$basic_string@DU?$char_traits@D@std@@V?$allocator@D@2@@3@AEBQEBD12@Z
	??$_str@W4DeviceType@c10@@@detail@c10@@YAAEAV?$basic_ostream@DU?$char_traits@D@std@@@std@@AEAV23@AEBW4DeviceType@1@@Z
	??$_str@W4DeviceType@c10@@PEBD@detail@c10@@YAAEAV?$basic_ostream@DU?$char_traits@D@std@@@std@@AEAV23@AEBW4DeviceType@1@AEBQEBD@Z
	??$_str@W4DeviceType@c10@@PEBDUDevice@2@@detail@c10@@YAAEAV?$basic_ostream@DU?$char_traits@D@std@@@std@@AEAV23@AEBW4DeviceType@1@AEBQEBDAEBUDevice@1@@Z
	??$_str@_K@detail@c10@@YAAEAV?$basic_ostream@DU?$char_traits@D@std@@@std@@AEAV23@AEB_K@Z
	??$_str@_KPEBDUDevice@c10@@@detail@c10@@YAAEAV?$basic_ostream@DU?$char_traits@D@std@@@std@@AEAV23@AEB_KAEBQEBDAEBUDevice@1@@Z
	??$_typeMetaData@D@TypeMeta@caffe2@@CAGXZ
	??$_typeMetaData@J@TypeMeta@caffe2@@CAGXZ
	??$_typeMetaData@PEAD@TypeMeta@caffe2@@CAGXZ
	??$_typeMetaData@PEAH@TypeMeta@caffe2@@CAGXZ
	??$_typeMetaData@PEAM@TypeMeta@caffe2@@CAGXZ
	??$_typeMetaData@PEAUHalf@c10@@@TypeMeta@caffe2@@CAGXZ
	??$_typeMetaData@PEA_N@TypeMeta@caffe2@@CAGXZ
	??$_typeMetaData@V?$basic_string@DU?$char_traits@D@std@@V?$allocator@D@2@@std@@@TypeMeta@caffe2@@CAGXZ
	??$_typeMetaData@V?$unique_ptr@U?$atomic@_N@std@@U?$default_delete@U?$atomic@_N@std@@@2@@std@@@TypeMeta@caffe2@@CAGXZ
	??$_typeMetaData@V?$unique_ptr@Vmutex@std@@U?$default_delete@Vmutex@std@@@2@@std@@@TypeMeta@caffe2@@CAGXZ
	??$_typeMetaData@V?$vector@HV?$allocator@H@std@@@std@@@TypeMeta@caffe2@@CAGXZ
	??$_typeMetaData@V?$vector@JV?$allocator@J@std@@@std@@@TypeMeta@caffe2@@CAGXZ
	??$_typeMetaData@V?$vector@KV?$allocator@K@std@@@std@@@TypeMeta@caffe2@@CAGXZ
	??$_typeMetaData@V?$vector@_JV?$allocator@_J@std@@@std@@@TypeMeta@caffe2@@CAGXZ
	??$_typeMetaData@V_Uninitialized@detail@caffe2@@@TypeMeta@caffe2@@CAGXZ
	??$accumulate@PEA_J_KU?$multiplies@_K@std@@@std@@YA_KQEA_J0_KU?$multiplies@_K@0@@Z
	??$addressof@$$CBV?$_Vector_val@U?$_Simple_types@UDevice@c10@@@std@@@std@@@std@@YAPEBV?$_Vector_val@U?$_Simple_types@UDevice@c10@@@std@@@0@AEBV10@@Z
	??$addressof@$$CBV?$vector@UIValue@c10@@V?$allocator@UIValue@c10@@@std@@@std@@@std@@YAPEBV?$vector@UIValue@c10@@V?$allocator@UIValue@c10@@@std@@@0@AEBV10@@Z
	??$addressof@D@std@@YAPEADAEAD@Z
	??$addressof@I@std@@YAPEAIAEAI@Z
	??$addressof@PEAD@std@@YAPEAPEADAEAPEAD@Z
	??$addressof@UDevice@c10@@@std@@YAPEAUDevice@c10@@AEAU12@@Z
	??$addressof@UEvent@c10@@@std@@YAPEAUEvent@c10@@AEAU12@@Z
	??$addressof@V?$InlineDeviceGuard@VVirtualGuardImpl@impl@c10@@@impl@c10@@@std@@YAPEAV?$InlineDeviceGuard@VVirtualGuardImpl@impl@c10@@@impl@c10@@AEAV123@@Z
	??$addressof@V?$_String_val@U?$_Simple_types@D@std@@@std@@@std@@YAPEAV?$_String_val@U?$_Simple_types@D@std@@@0@AEAV10@@Z
	??$addressof@V?$_Vector_val@U?$_Simple_types@I@std@@@std@@@std@@YAPEAV?$_Vector_val@U?$_Simple_types@I@std@@@0@AEAV10@@Z
	??$addressof@V?$_Vector_val@U?$_Simple_types@UDevice@c10@@@std@@@std@@@std@@YAPEAV?$_Vector_val@U?$_Simple_types@UDevice@c10@@@std@@@0@AEAV10@@Z
	??$addressof@V?$_Vector_val@U?$_Simple_types@UIValue@c10@@@std@@@std@@@std@@YAPEAV?$_Vector_val@U?$_Simple_types@UIValue@c10@@@std@@@0@AEAV10@@Z
	??$addressof@V?$basic_ostream@DU?$char_traits@D@std@@@std@@@std@@YAPEAV?$basic_ostream@DU?$char_traits@D@std@@@0@AEAV10@@Z
	??$addressof@V?$basic_stringbuf@DU?$char_traits@D@std@@V?$allocator@D@2@@std@@@std@@YAPEAV?$basic_stringbuf@DU?$char_traits@D@std@@V?$allocator@D@2@@0@AEAV10@@Z
	??$addressof@V?$function@$$A6A?AUIValue@c10@@XZ@std@@@std@@YAPEAV?$function@$$A6A?AUIValue@c10@@XZ@0@AEAV10@@Z
	??$addressof@V?$vector@UDevice@c10@@V?$allocator@UDevice@c10@@@std@@@std@@@std@@YAPEAV?$vector@UDevice@c10@@V?$allocator@UDevice@c10@@@std@@@0@AEAV10@@Z
	??$addressof@V?$vector@UFutureCallback@Future@ivalue@c10@@V?$allocator@UFutureCallback@Future@ivalue@c10@@@std@@@std@@@std@@YAPEAV?$vector@UFutureCallback@Future@ivalue@c10@@V?$allocator@UFutureCallback@Future@ivalue@c10@@@std@@@0@AEAV10@@Z
	??$addressof@V?$vector@UIValue@c10@@V?$allocator@UIValue@c10@@@std@@@std@@@std@@YAPEAV?$vector@UIValue@c10@@V?$allocator@UIValue@c10@@@std@@@0@AEAV10@@Z
	??$addressof@V?$vector@V?$weak_intrusive_ptr@UStorageImpl@c10@@U?$intrusive_target_default_null_type@UStorageImpl@c10@@@detail@2@@c10@@V?$allocator@V?$weak_intrusive_ptr@UStorageImpl@c10@@U?$intrusive_target_default_null_type@UStorageImpl@c10@@@detail@2@@c10@@@std@@@std@@@std@@YAPEAV?$vector@V?$weak_intrusive_ptr@UStorageImpl@c10@@U?$intrusive_target_default_null_type@UStorageImpl@c10@@@detail@2@@c10@@V?$allocator@V?$weak_intrusive_ptr@UStorageImpl@c10@@U?$intrusive_target_default_null_type@UStorageImpl@c10@@@detail@2@@c10@@@std@@@0@AEAV10@@Z
	??$addressof@VStream@c10@@@std@@YAPEAVStream@c10@@AEAV12@@Z
	??$addressof@VTypeMeta@caffe2@@@std@@YAPEAVTypeMeta@caffe2@@AEAV12@@Z
	??$addressof@VVirtualGuardImpl@impl@c10@@@std@@YAPEAVVirtualGuardImpl@impl@c10@@AEAV123@@Z
	??$addressof@Vmutex@std@@@std@@YAPEAVmutex@0@AEAV10@@Z
	??$assign_ptr_@UTensorImpl@c10@@UUndefinedTensorImpl@2@U?$intrusive_target_default_null_type@UTensorImpl@c10@@@detail@2@@detail@c10@@YAPEAUTensorImpl@1@PEAU21@@Z
	??$back_inserter@V?$vector@UDevice@c10@@V?$allocator@UDevice@c10@@@std@@@std@@@std@@YA?AV?$back_insert_iterator@V?$vector@UDevice@c10@@V?$allocator@UDevice@c10@@@std@@@std@@@0@AEAV?$vector@UDevice@c10@@V?$allocator@UDevice@c10@@@std@@@0@@Z
	??$begin@_J@std@@YAPEB_JV?$initializer_list@_J@0@@Z
	??$construct@IAEBI@?$_Default_allocator_traits@V?$allocator@I@std@@@std@@SAXAEAV?$allocator@I@1@QEAIAEBI@Z
	??$construct@PEAUTF_Tensor@@$$V@?$_Default_allocator_traits@V?$allocator@PEAUTF_Tensor@@@std@@@std@@SAXAEAV?$allocator@PEAUTF_Tensor@@@1@QEAPEAUTF_Tensor@@@Z
	??$construct@PEAUTF_Tensor@@AEBQEAU1@@?$_Default_allocator_traits@V?$allocator@PEAUTF_Tensor@@@std@@@std@@SAXAEAV?$allocator@PEAUTF_Tensor@@@1@QEAPEAUTF_Tensor@@AEBQEAU3@@Z
	??$construct@UDevice@c10@@AEAU12@@?$_Default_allocator_traits@V?$allocator@UDevice@c10@@@std@@@std@@SAXAEAV?$allocator@UDevice@c10@@@1@QEAUDevice@c10@@AEAU34@@Z
	??$construct@UDevice@c10@@AEBU12@@?$_Default_allocator_traits@V?$allocator@UDevice@c10@@@std@@@std@@SAXAEAV?$allocator@UDevice@c10@@@1@QEAUDevice@c10@@AEBU34@@Z
	??$construct@UDevice@c10@@U12@@?$_Default_allocator_traits@V?$allocator@UDevice@c10@@@std@@@std@@SAXAEAV?$allocator@UDevice@c10@@@1@QEAUDevice@c10@@$$QEAU34@@Z
	??$construct@UDevice@c10@@W4DeviceType@2@AEAC@?$_Default_allocator_traits@V?$allocator@UDevice@c10@@@std@@@std@@SAXAEAV?$allocator@UDevice@c10@@@1@QEAUDevice@c10@@$$QEAW4DeviceType@4@AEAC@Z
	??$construct@UEvent@c10@@U12@@?$_Default_allocator_traits@V?$allocator@UEvent@c10@@@std@@@std@@SAXAEAV?$allocator@UEvent@c10@@@1@QEAUEvent@c10@@$$QEAU34@@Z
	??$construct@UIValue@c10@@$$V@?$_Default_allocator_traits@V?$allocator@UIValue@c10@@@std@@@std@@SAXAEAV?$allocator@UIValue@c10@@@1@QEAUIValue@c10@@@Z
	??$construct@UIValue@c10@@AEAU12@@?$_Default_allocator_traits@V?$allocator@UIValue@c10@@@std@@@std@@SAXAEAV?$allocator@UIValue@c10@@@1@QEAUIValue@c10@@AEAU34@@Z
	??$construct@UIValue@c10@@AEBU12@@?$_Default_allocator_traits@V?$allocator@UIValue@c10@@@std@@@std@@SAXAEAV?$allocator@UIValue@c10@@@1@QEAUIValue@c10@@AEBU34@@Z
	??$construct@UIValue@c10@@U12@@?$_Default_allocator_traits@V?$allocator@UIValue@c10@@@std@@@std@@SAXAEAV?$allocator@UIValue@c10@@@1@QEAUIValue@c10@@$$QEAU34@@Z
	??$construct@UTF_Output@@$$V@?$_Default_allocator_traits@V?$allocator@UTF_Output@@@std@@@std@@SAXAEAV?$allocator@UTF_Output@@@1@QEAUTF_Output@@@Z
	??$construct@VStream@c10@@V12@@?$_Default_allocator_traits@V?$allocator@VStream@c10@@@std@@@std@@SAXAEAV?$allocator@VStream@c10@@@1@QEAVStream@c10@@$$QEAV34@@Z
	??$construct@_J$$V@?$_Default_allocator_traits@V?$allocator@_J@std@@@std@@SAXAEAV?$allocator@_J@1@QEA_J@Z
	??$create@$$V@AwaitType@c10@@SA?AV?$shared_ptr@UAwaitType@c10@@@std@@V?$SingletonOrSharedTypePtr@UType@c10@@@Type@1@@Z
	??$destroy@UEvent@c10@@@?$_Default_allocator_traits@V?$allocator@UEvent@c10@@@std@@@std@@SAXAEAV?$allocator@UEvent@c10@@@1@QEAUEvent@c10@@@Z
	??$destroy@UFutureCallback@Future@ivalue@c10@@@?$_Default_allocator_traits@V?$allocator@UFutureCallback@Future@ivalue@c10@@@std@@@std@@SAXAEAV?$allocator@UFutureCallback@Future@ivalue@c10@@@1@QEAUFutureCallback@Future@ivalue@c10@@@Z
	??$destroy@UIValue@c10@@@?$_Default_allocator_traits@V?$allocator@UIValue@c10@@@std@@@std@@SAXAEAV?$allocator@UIValue@c10@@@1@QEAUIValue@c10@@@Z
	??$destroy@V?$weak_intrusive_ptr@UStorageImpl@c10@@U?$intrusive_target_default_null_type@UStorageImpl@c10@@@detail@2@@c10@@@?$_Default_allocator_traits@V?$allocator@V?$weak_intrusive_ptr@UStorageImpl@c10@@U?$intrusive_target_default_null_type@UStorageImpl@c10@@@detail@2@@c10@@@std@@@std@@SAXAEAV?$allocator@V?$weak_intrusive_ptr@UStorageImpl@c10@@U?$intrusive_target_default_null_type@UStorageImpl@c10@@@detail@2@@c10@@@1@QEAV?$weak_intrusive_ptr@UStorageImpl@c10@@U?$intrusive_target_default_null_type@UStorageImpl@c10@@@detail@2@@c10@@@Z
	??$destroy@VTensor@at@@@?$_Default_allocator_traits@V?$allocator@VTensor@at@@@std@@@std@@SAXAEAV?$allocator@VTensor@at@@@1@QEAVTensor@at@@@Z
	??$emplace@AEAUDevice@c10@@@?$optional@V?$InlineDeviceGuard@VVirtualGuardImpl@impl@c10@@@impl@c10@@@std@@QEAAAEAV?$InlineDeviceGuard@VVirtualGuardImpl@impl@c10@@@impl@c10@@AEAUDevice@4@@Z
	??$emplace@W4DeviceType@c10@@@?$optional@VVirtualGuardImpl@impl@c10@@@std@@QEAAAEAVVirtualGuardImpl@impl@c10@@$$QEAW4DeviceType@4@@Z
	??$emplace_back@VStream@c10@@@?$vector@VStream@c10@@V?$allocator@VStream@c10@@@std@@@std@@QEAAAEAVStream@c10@@$$QEAV23@@Z
	??$emplace_back@W4DeviceType@c10@@AEAC@?$vector@UDevice@c10@@V?$allocator@UDevice@c10@@@std@@@std@@QEAAAEAUDevice@c10@@$$QEAW4DeviceType@3@AEAC@Z
	??$end@_J@std@@YAPEB_JV?$initializer_list@_J@0@@Z
	??$exchange@PEAUAutogradMeta@autograd@torch@@$$T@std@@YAPEAUAutogradMeta@autograd@torch@@AEAPEAU123@$$QEA$$T@Z
	??$exchange@PEAUDevice@c10@@$$T@std@@YAPEAUDevice@c10@@AEAPEAU12@$$QEA$$T@Z
	??$exchange@PEAUIValue@c10@@$$T@std@@YAPEAUIValue@c10@@AEAPEAU12@$$QEA$$T@Z
	??$exchange@PEAV?$weak_intrusive_ptr@UStorageImpl@c10@@U?$intrusive_target_default_null_type@UStorageImpl@c10@@@detail@2@@c10@@$$T@std@@YAPEAV?$weak_intrusive_ptr@UStorageImpl@c10@@U?$intrusive_target_default_null_type@UStorageImpl@c10@@@detail@2@@c10@@AEAPEAV12@$$QEA$$T@Z
	??$forward@AEAC@std@@YAAEACAEAC@Z
	??$forward@AEAPEAD@std@@YAAEAPEADAEAPEAD@Z
	??$forward@AEAPEAUAutogradMeta@autograd@torch@@@std@@YAAEAPEAUAutogradMeta@autograd@torch@@AEAPEAU123@@Z
	??$forward@AEAPEAUDevice@c10@@@std@@YAAEAPEAUDevice@c10@@AEAPEAU12@@Z
	??$forward@AEAUDevice@c10@@@std@@YAAEAUDevice@c10@@AEAU12@@Z
	??$forward@AEAUFuture@ivalue@c10@@@std@@YAAEAUFuture@ivalue@c10@@AEAU123@@Z
	??$forward@AEAUIValue@c10@@@std@@YAAEAUIValue@c10@@AEAU12@@Z
	??$forward@AEA_K@std@@YAAEA_KAEA_K@Z
	??$forward@AEA_N@std@@YAAEA_NAEA_N@Z
	??$forward@AEBI@std@@YAAEBIAEBI@Z
	??$forward@AEBQEAD@std@@YAAEBQEADAEBQEAD@Z
	??$forward@AEBQEAUDevice@c10@@@std@@YAAEBQEAUDevice@c10@@AEBQEAU12@@Z
	??$forward@AEBQEAUIValue@c10@@@std@@YAAEBQEAUIValue@c10@@AEBQEAU12@@Z
	??$forward@AEBQEAUTF_Tensor@@@std@@YAAEBQEAUTF_Tensor@@AEBQEAU1@@Z
	??$forward@AEBUDevice@c10@@@std@@YAAEBUDevice@c10@@AEBU12@@Z
	??$forward@AEBUIValue@c10@@@std@@YAAEBUIValue@c10@@AEBU12@@Z
	??$forward@AEBV?$allocator@D@std@@@std@@YAAEBV?$allocator@D@0@AEBV10@@Z
	??$forward@AEBV?$allocator@I@std@@@std@@YAAEBV?$allocator@I@0@AEBV10@@Z
	??$forward@AEBV?$allocator@PEAUTF_Tensor@@@std@@@std@@YAAEBV?$allocator@PEAUTF_Tensor@@@0@AEBV10@@Z
	??$forward@AEBV?$allocator@UTF_Output@@@std@@@std@@YAAEBV?$allocator@UTF_Output@@@0@AEBV10@@Z
	??$forward@AEBV?$allocator@_J@std@@@std@@YAAEBV?$allocator@_J@0@AEBV10@@Z
	??$forward@AEBV?$vector@UDevice@c10@@V?$allocator@UDevice@c10@@@std@@@std@@@std@@YAAEBV?$vector@UDevice@c10@@V?$allocator@UDevice@c10@@@std@@@0@AEBV10@@Z
	??$forward@PEAUAutogradMeta@autograd@torch@@@std@@YA$$QEAPEAUAutogradMeta@autograd@torch@@AEAPEAU123@@Z
	??$forward@PEAUDevice@c10@@@std@@YA$$QEAPEAUDevice@c10@@AEAPEAU12@@Z
	??$forward@PEAUIValue@c10@@@std@@YA$$QEAPEAUIValue@c10@@AEAPEAU12@@Z
	??$forward@PEAUTensorImpl@c10@@@std@@YA$$QEAPEAUTensorImpl@c10@@AEAPEAU12@@Z
	??$forward@PEAV?$weak_intrusive_ptr@UStorageImpl@c10@@U?$intrusive_target_default_null_type@UStorageImpl@c10@@@detail@2@@c10@@@std@@YA$$QEAPEAV?$weak_intrusive_ptr@UStorageImpl@c10@@U?$intrusive_target_default_null_type@UStorageImpl@c10@@@detail@2@@c10@@AEAPEAV12@@Z
	??$forward@U?$default_delete@UAutogradMeta@autograd@torch@@@std@@@std@@YA$$QEAU?$default_delete@UAutogradMeta@autograd@torch@@@0@AEAU10@@Z
	??$forward@UDevice@c10@@@std@@YA$$QEAUDevice@c10@@AEAU12@@Z
	??$forward@UEvent@c10@@@std@@YA$$QEAUEvent@c10@@AEAU12@@Z
	??$forward@UIValue@c10@@@std@@YA$$QEAUIValue@c10@@AEAU12@@Z
	??$forward@UStrongTypePtr@c10@@@std@@YA$$QEAUStrongTypePtr@c10@@AEAU12@@Z
	??$forward@UWeakOrStrongTypePtr@c10@@@std@@YA$$QEAUWeakOrStrongTypePtr@c10@@AEAU12@@Z
	??$forward@V?$SingletonOrSharedTypePtr@UType@c10@@@Type@c10@@@std@@YA$$QEAV?$SingletonOrSharedTypePtr@UType@c10@@@Type@c10@@AEAV123@@Z
	??$forward@V?$allocator@D@std@@@std@@YA$$QEAV?$allocator@D@0@AEAV10@@Z
	??$forward@V?$allocator@UDevice@c10@@@std@@@std@@YA$$QEAV?$allocator@UDevice@c10@@@0@AEAV10@@Z
	??$forward@V?$allocator@UIValue@c10@@@std@@@std@@YA$$QEAV?$allocator@UIValue@c10@@@0@AEAV10@@Z
	??$forward@V?$allocator@V?$weak_intrusive_ptr@UStorageImpl@c10@@U?$intrusive_target_default_null_type@UStorageImpl@c10@@@detail@2@@c10@@@std@@@std@@YA$$QEAV?$allocator@V?$weak_intrusive_ptr@UStorageImpl@c10@@U?$intrusive_target_default_null_type@UStorageImpl@c10@@@detail@2@@c10@@@0@AEAV10@@Z
	??$forward@V?$back_insert_iterator@V?$vector@UDevice@c10@@V?$allocator@UDevice@c10@@@std@@@std@@@std@@@std@@YA$$QEAV?$back_insert_iterator@V?$vector@UDevice@c10@@V?$allocator@UDevice@c10@@@std@@@std@@@0@AEAV10@@Z
	??$forward@VStream@c10@@@std@@YA$$QEAVStream@c10@@AEAV12@@Z
	??$forward@W4DeviceType@c10@@@std@@YA$$QEAW4DeviceType@c10@@AEAW412@@Z
	??$forward@W4ScalarType@c10@@@std@@YA$$QEAW4ScalarType@c10@@AEAW412@@Z
	??$invokeCallback@$$CBV?$function@$$A6AXAEAUFuture@ivalue@c10@@@Z@std@@@Future@ivalue@c10@@AEAAXAEBV?$function@$$A6AXAEAUFuture@ivalue@c10@@@Z@std@@_N@Z
	??$irange@H_K$00$00@c10@@YA?AU?$integer_range@_K$0A@$00@0@H_K@Z
	??$irange@_K$00@c10@@YA?AU?$integer_range@_K$00$00@0@_K@Z
	??$is_negative@_K@c10@@YA_NAEB_K@Z
	??$is_negative@_K@c10@@YA_NAEB_KU?$integral_constant@_N$00@std@@@Z
	??$make@UStrongTypePtr@c10@@AEA_K@?$intrusive_ptr@UObject@ivalue@c10@@U?$intrusive_target_default_null_type@UObject@ivalue@c10@@@detail@3@@c10@@SA?AV01@$$QEAUStrongTypePtr@1@AEA_K@Z
	??$make@UWeakOrStrongTypePtr@c10@@AEA_K@?$intrusive_ptr@UObject@ivalue@c10@@U?$intrusive_target_default_null_type@UObject@ivalue@c10@@@detail@3@@c10@@SA?AV01@$$QEAUWeakOrStrongTypePtr@1@AEA_K@Z
	??$make@V?$SingletonOrSharedTypePtr@UType@c10@@@Type@c10@@AEBV?$vector@UDevice@c10@@V?$allocator@UDevice@c10@@@std@@@std@@@?$intrusive_ptr@UFuture@ivalue@c10@@U?$intrusive_target_default_null_type@UFuture@ivalue@c10@@@detail@3@@c10@@SA?AV01@$$QEAV?$SingletonOrSharedTypePtr@UType@c10@@@Type@1@AEBV?$vector@UDevice@c10@@V?$allocator@UDevice@c10@@@std@@@std@@@Z
	??$make_intrusive@UFuture@ivalue@c10@@U?$intrusive_target_default_null_type@UFuture@ivalue@c10@@@detail@3@V?$SingletonOrSharedTypePtr@UType@c10@@@Type@3@AEBV?$vector@UDevice@c10@@V?$allocator@UDevice@c10@@@std@@@std@@@c10@@YA?AV?$intrusive_ptr@UFuture@ivalue@c10@@U?$intrusive_target_default_null_type@UFuture@ivalue@c10@@@detail@3@@0@$$QEAV?$SingletonOrSharedTypePtr@UType@c10@@@Type@0@AEBV?$vector@UDevice@c10@@V?$allocator@UDevice@c10@@@std@@@std@@@Z
	??$make_intrusive@UObject@ivalue@c10@@U?$intrusive_target_default_null_type@UObject@ivalue@c10@@@detail@3@UStrongTypePtr@3@AEA_K@c10@@YA?AV?$intrusive_ptr@UObject@ivalue@c10@@U?$intrusive_target_default_null_type@UObject@ivalue@c10@@@detail@3@@0@$$QEAUStrongTypePtr@0@AEA_K@Z
	??$make_intrusive@UObject@ivalue@c10@@U?$intrusive_target_default_null_type@UObject@ivalue@c10@@@detail@3@UWeakOrStrongTypePtr@3@AEA_K@c10@@YA?AV?$intrusive_ptr@UObject@ivalue@c10@@U?$intrusive_target_default_null_type@UObject@ivalue@c10@@@detail@3@@0@$$QEAUWeakOrStrongTypePtr@0@AEA_K@Z
	??$make_unique@UAutogradMeta@autograd@torch@@PEAUTensorImpl@c10@@AEA_N$0A@@std@@YA?AV?$unique_ptr@UAutogradMeta@autograd@torch@@U?$default_delete@UAutogradMeta@autograd@torch@@@std@@@0@$$QEAPEAUTensorImpl@c10@@AEA_N@Z
	??$max@PEAD@std@@YAAEBQEADAEBQEAD0@Z
	??$max@_K@std@@YAAEB_KAEB_K0@Z
	??$min@_K@std@@YAAEB_KAEB_K0@Z
	??$move@AEAI@std@@YA$$QEAIAEAI@Z
	??$move@AEAPEAI@std@@YA$$QEAPEAIAEAPEAI@Z
	??$move@AEAPEAUDevice@c10@@@std@@YA$$QEAPEAUDevice@c10@@AEAPEAU12@@Z
	??$move@AEAPEAUFutureCallback@Future@ivalue@c10@@@std@@YA$$QEAPEAUFutureCallback@Future@ivalue@c10@@AEAPEAU1234@@Z
	??$move@AEAPEAUIValue@c10@@@std@@YA$$QEAPEAUIValue@c10@@AEAPEAU12@@Z
	??$move@AEAPEAUSharedType@c10@@@std@@YA$$QEAPEAUSharedType@c10@@AEAPEAU12@@Z
	??$move@AEAPEAVStream@c10@@@std@@YA$$QEAPEAVStream@c10@@AEAPEAV12@@Z
	??$move@AEAPEAV_Ref_count_base@std@@@std@@YA$$QEAPEAV_Ref_count_base@0@AEAPEAV10@@Z
	??$move@AEAPEBUIValue@c10@@@std@@YA$$QEAPEBUIValue@c10@@AEAPEBU12@@Z
	??$move@AEAUDevice@c10@@@std@@YA$$QEAUDevice@c10@@AEAU12@@Z
	??$move@AEAUEvent@c10@@@std@@YA$$QEAUEvent@c10@@AEAU12@@Z
	??$move@AEAUIValue@c10@@@std@@YA$$QEAUIValue@c10@@AEAU12@@Z
	??$move@AEAUSharedPtrWrapper@?$SingletonOrSharedTypePtr@UType@c10@@@Type@c10@@@std@@YA$$QEAUSharedPtrWrapper@?$SingletonOrSharedTypePtr@UType@c10@@@Type@c10@@AEAU1234@@Z
	??$move@AEAUStrongTypePtr@c10@@@std@@YA$$QEAUStrongTypePtr@c10@@AEAU12@@Z
	??$move@AEAUWeakOrStrongTypePtr@c10@@@std@@YA$$QEAUWeakOrStrongTypePtr@c10@@AEAU12@@Z
	??$move@AEAV?$SingletonOrSharedTypePtr@UType@c10@@@Type@c10@@@std@@YA$$QEAV?$SingletonOrSharedTypePtr@UType@c10@@@Type@c10@@AEAV123@@Z
	??$move@AEAV?$allocator@D@std@@@std@@YA$$QEAV?$allocator@D@0@AEAV10@@Z
	??$move@AEAV?$allocator@UDevice@c10@@@std@@@std@@YA$$QEAV?$allocator@UDevice@c10@@@0@AEAV10@@Z
	??$move@AEAV?$allocator@UIValue@c10@@@std@@@std@@YA$$QEAV?$allocator@UIValue@c10@@@0@AEAV10@@Z
	??$move@AEAV?$allocator@V?$weak_intrusive_ptr@UStorageImpl@c10@@U?$intrusive_target_default_null_type@UStorageImpl@c10@@@detail@2@@c10@@@std@@@std@@YA$$QEAV?$allocator@V?$weak_intrusive_ptr@UStorageImpl@c10@@U?$intrusive_target_default_null_type@UStorageImpl@c10@@@detail@2@@c10@@@0@AEAV10@@Z
	??$move@AEAV?$function@$$A6A?AUIValue@c10@@XZ@std@@@std@@YA$$QEAV?$function@$$A6A?AUIValue@c10@@XZ@0@AEAV10@@Z
	??$move@AEAV?$intrusive_ptr@UTensorImpl@c10@@U?$intrusive_target_default_null_type@UTensorImpl@c10@@@detail@2@@c10@@@std@@YA$$QEAV?$intrusive_ptr@UTensorImpl@c10@@U?$intrusive_target_default_null_type@UTensorImpl@c10@@@detail@2@@c10@@AEAV12@@Z
	??$move@AEAV?$intrusive_ptr@UTensorImpl@c10@@UUndefinedTensorImpl@2@@c10@@@std@@YA$$QEAV?$intrusive_ptr@UTensorImpl@c10@@UUndefinedTensorImpl@2@@c10@@AEAV12@@Z
	??$move@AEAV?$shared_ptr@UAwaitType@c10@@@std@@@std@@YA$$QEAV?$shared_ptr@UAwaitType@c10@@@0@AEAV10@@Z
	??$move@AEAV?$shared_ptr@UType@c10@@@std@@@std@@YA$$QEAV?$shared_ptr@UType@c10@@@0@AEAV10@@Z
	??$move@AEAV?$vector@UDevice@c10@@V?$allocator@UDevice@c10@@@std@@@std@@@std@@YA$$QEAV?$vector@UDevice@c10@@V?$allocator@UDevice@c10@@@std@@@0@AEAV10@@Z
	??$move@AEAV?$vector@UIValue@c10@@V?$allocator@UIValue@c10@@@std@@@std@@@std@@YA$$QEAV?$vector@UIValue@c10@@V?$allocator@UIValue@c10@@@std@@@0@AEAV10@@Z
	??$move@AEAV?$vector@V?$weak_intrusive_ptr@UStorageImpl@c10@@U?$intrusive_target_default_null_type@UStorageImpl@c10@@@detail@2@@c10@@V?$allocator@V?$weak_intrusive_ptr@UStorageImpl@c10@@U?$intrusive_target_default_null_type@UStorageImpl@c10@@@detail@2@@c10@@@std@@@std@@@std@@YA$$QEAV?$vector@V?$weak_intrusive_ptr@UStorageImpl@c10@@U?$intrusive_target_default_null_type@UStorageImpl@c10@@@detail@2@@c10@@V?$allocator@V?$weak_intrusive_ptr@UStorageImpl@c10@@U?$intrusive_target_default_null_type@UStorageImpl@c10@@@detail@2@@c10@@@std@@@0@AEAV10@@Z
	??$move@AEAVStream@c10@@@std@@YA$$QEAVStream@c10@@AEAV12@@Z
	??$move@AEAVTensor@at@@@std@@YA$$QEAVTensor@at@@AEAV12@@Z
	??$move@AEAVVirtualGuardImpl@impl@c10@@@std@@YA$$QEAVVirtualGuardImpl@impl@c10@@AEAV123@@Z
	??$move@AEAVexception_ptr@std@@@std@@YA$$QEAVexception_ptr@0@AEAV10@@Z
	??$set_difference@V?$_Vector_const_iterator@V?$_Vector_val@U?$_Simple_types@UDevice@c10@@@std@@@std@@@std@@V12@V?$back_insert_iterator@V?$vector@UDevice@c10@@V?$allocator@UDevice@c10@@@std@@@std@@@2@V<lambda_1>@?1??ensureIsSubsetOfDevices@Future@ivalue@c10@@CAXAEBV?$vector@UDevice@c10@@V?$allocator@UDevice@c10@@@std@@@2@0@Z@@std@@YA?AV?$back_insert_iterator@V?$vector@UDevice@c10@@V?$allocator@UDevice@c10@@@std@@@std@@@0@V?$_Vector_const_iterator@V?$_Vector_val@U?$_Simple_types@UDevice@c10@@@std@@@std@@@0@000V10@V<lambda_1>@?1??ensureIsSubsetOfDevices@Future@ivalue@c10@@CAXAEBV?$vector@UDevice@c10@@V?$allocator@UDevice@c10@@@std@@@0@2@Z@@Z
	??$sort@V?$_Vector_iterator@V?$_Vector_val@U?$_Simple_types@UDevice@c10@@@std@@@std@@@std@@V<lambda_1>@?1??sortAndDeduplicateDevices@Future@ivalue@c10@@CA?AV?$vector@UDevice@c10@@V?$allocator@UDevice@c10@@@std@@@2@AEBVVirtualGuardImpl@impl@7@V82@@Z@@std@@YAXV?$_Vector_iterator@V?$_Vector_val@U?$_Simple_types@UDevice@c10@@@std@@@std@@@0@0V<lambda_1>@?1??sortAndDeduplicateDevices@Future@ivalue@c10@@CA?AV?$vector@UDevice@c10@@V?$allocator@UDevice@c10@@@std@@@0@AEBVVirtualGuardImpl@impl@6@V70@@Z@@Z
	??$str@$$BY0BD@DV?$basic_string@DU?$char_traits@D@std@@V?$allocator@D@2@@std@@$$BY0CP@DV12@$$BY01D@c10@@YA?A_TAEAY0BD@$$CBDAEBV?$basic_string@DU?$char_traits@D@std@@V?$allocator@D@2@@std@@AEAY0CP@$$CBD1AEAY01$$CBD@Z
	??$str@$$BY0BD@DV?$basic_string@DU?$char_traits@D@std@@V?$allocator@D@2@@std@@$$BY0DA@DV12@$$BY01D@c10@@YA?A_TAEAY0BD@$$CBDAEBV?$basic_string@DU?$char_traits@D@std@@V?$allocator@D@2@@std@@AEAY0DA@$$CBD1AEAY01$$CBD@Z
	??$str@$$BY0BI@DV?$basic_string@DU?$char_traits@D@std@@V?$allocator@D@2@@std@@@c10@@YA?A_TAEAY0BI@$$CBDAEBV?$basic_string@DU?$char_traits@D@std@@V?$allocator@D@2@@std@@@Z
	??$str@$$BY0CD@D@c10@@YA?A_TAEAY0CD@$$CBD@Z
	??$str@$$BY0CD@DV?$basic_string@DU?$char_traits@D@std@@V?$allocator@D@2@@std@@$$BY0BI@DV12@@c10@@YA?A_TAEAY0CD@$$CBDAEBV?$basic_string@DU?$char_traits@D@std@@V?$allocator@D@2@@std@@AEAY0BI@$$CBD1@Z
	??$str@$$BY0CH@DUDevice@c10@@@c10@@YA?A_TAEAY0CH@$$CBDAEBUDevice@0@@Z
	??$str@$$BY0CI@DW4DeviceType@c10@@$$BY08D@c10@@YA?A_TAEAY0CI@$$CBDAEBW4DeviceType@0@AEAY08$$CBD@Z
	??$str@$$BY0DC@DW4DeviceType@c10@@$$BY0BF@DUDevice@2@@c10@@YA?A_TAEAY0DC@$$CBDAEBW4DeviceType@0@AEAY0BF@$$CBDAEBUDevice@0@@Z
	??$str@$$BY0DE@DUDevice@c10@@$$BY0P@D_K$$BY0P@DU12@@c10@@YA?A_TAEAY0DE@$$CBDAEBUDevice@0@AEAY0P@$$CBDAEB_K21@Z
	??$str@$$BY0DE@DV?$basic_string@DU?$char_traits@D@std@@V?$allocator@D@2@@std@@$$BY0CN@DV12@@c10@@YA?A_TAEAY0DE@$$CBDAEBV?$basic_string@DU?$char_traits@D@std@@V?$allocator@D@2@@std@@AEAY0CN@$$CBD1@Z
	??$str@$$BY0EF@DJ@c10@@YA?A_TAEAY0EF@$$CBDAEBJ@Z
	??$str@$$BY0EI@D$$BY0CP@DV?$basic_string@DU?$char_traits@D@std@@V?$allocator@D@2@@std@@@c10@@YA?A_TAEAY0EI@$$CBDAEAY0CP@$$CBDAEBV?$basic_string@DU?$char_traits@D@std@@V?$allocator@D@2@@std@@@Z
	??$str@$$BY0EJ@DUDevice@c10@@$$BY05DU12@@c10@@YA?A_TAEAY0EJ@$$CBDAEBUDevice@0@AEAY05$$CBD1@Z
	??$str@$$BY0FO@D@c10@@YA?A_TAEAY0FO@$$CBD@Z
	??$str@$$BY0HJ@DV?$basic_string@DU?$char_traits@D@std@@V?$allocator@D@2@@std@@@c10@@YA?A_TAEAY0HJ@$$CBDAEBV?$basic_string@DU?$char_traits@D@std@@V?$allocator@D@2@@std@@@Z
	??$str@$$BY0JK@D@c10@@YA?A_TAEAY0JK@$$CBD@Z
	??$str@$$V@c10@@YA?A_TXZ
	??$swap@PEAUFutureCallback@Future@ivalue@c10@@$0A@@std@@YAXAEAPEAUFutureCallback@Future@ivalue@c10@@0@Z
	??$swap@PEAUSharedType@c10@@$0A@@std@@YAXAEAPEAUSharedType@c10@@0@Z
	??$swap@PEAV_Ref_count_base@std@@$0A@@std@@YAXAEAPEAV_Ref_count_base@0@0@Z
	??$swap@UDevice@c10@@$0A@@std@@YAXAEAUDevice@c10@@0@Z
	??$torchCheckMsgImpl@$$BY0BD@DV?$basic_string@DU?$char_traits@D@std@@V?$allocator@D@2@@std@@$$BY0CP@DV12@$$BY01D@detail@c10@@YA?A_TPEBDAEAY0BD@$$CBDAEBV?$basic_string@DU?$char_traits@D@std@@V?$allocator@D@2@@std@@AEAY0CP@$$CBD2AEAY01$$CBD@Z
	??$torchCheckMsgImpl@$$BY0BD@DV?$basic_string@DU?$char_traits@D@std@@V?$allocator@D@2@@std@@$$BY0DA@DV12@$$BY01D@detail@c10@@YA?A_TPEBDAEAY0BD@$$CBDAEBV?$basic_string@DU?$char_traits@D@std@@V?$allocator@D@2@@std@@AEAY0DA@$$CBD2AEAY01$$CBD@Z
	??$torchCheckMsgImpl@$$BY0CD@DV?$basic_string@DU?$char_traits@D@std@@V?$allocator@D@2@@std@@$$BY0BI@DV12@@detail@c10@@YA?A_TPEBDAEAY0CD@$$CBDAEBV?$basic_string@DU?$char_traits@D@std@@V?$allocator@D@2@@std@@AEAY0BI@$$CBD2@Z
	??$torchCheckMsgImpl@$$BY0CH@DUDevice@c10@@@detail@c10@@YA?A_TPEBDAEAY0CH@$$CBDAEBUDevice@1@@Z
	??$torchCheckMsgImpl@$$BY0CI@DW4DeviceType@c10@@$$BY08D@detail@c10@@YA?A_TPEBDAEAY0CI@$$CBDAEBW4DeviceType@1@AEAY08$$CBD@Z
	??$torchCheckMsgImpl@$$BY0DC@DW4DeviceType@c10@@$$BY0BF@DUDevice@2@@detail@c10@@YA?A_TPEBDAEAY0DC@$$CBDAEBW4DeviceType@1@AEAY0BF@$$CBDAEBUDevice@1@@Z
	??$torchCheckMsgImpl@$$BY0DE@DUDevice@c10@@$$BY0P@D_K$$BY0P@DU12@@detail@c10@@YA?A_TPEBDAEAY0DE@$$CBDAEBUDevice@1@AEAY0P@$$CBDAEB_K32@Z
	??$torchCheckMsgImpl@$$BY0DE@DV?$basic_string@DU?$char_traits@D@std@@V?$allocator@D@2@@std@@$$BY0CN@DV12@@detail@c10@@YA?A_TPEBDAEAY0DE@$$CBDAEBV?$basic_string@DU?$char_traits@D@std@@V?$allocator@D@2@@std@@AEAY0CN@$$CBD2@Z
	??$torchCheckMsgImpl@$$BY0EF@DJ@detail@c10@@YA?A_TPEBDAEAY0EF@$$CBDAEBJ@Z
	??$torchCheckMsgImpl@$$BY0EJ@DUDevice@c10@@$$BY05DU12@@detail@c10@@YA?A_TPEBDAEAY0EJ@$$CBDAEBUDevice@1@AEAY05$$CBD2@Z
	??$wait@V<lambda_1>@?1??0Future@ivalue@c10@@QEAAXXZ@@condition_variable@std@@QEAAXAEAV?$unique_lock@Vmutex@std@@@1@V<lambda_1>@?1??wait@Future@ivalue@c10@@QEAAXXZ@@Z
	??0<lambda_1>@?1??from_blob@torch@@YA?AVTensor@at@@PEAXV?$ArrayRef@_J@c10@@AEBUTensorOptions@6@@Z@QEAA@AEAPEAXAEAV56@2@Z
	??0<lambda_1>@?1??wait@Future@ivalue@c10@@QEAAXXZ@QEAA@PEAU234@@Z
	??0?$ArrayRef@VSymInt@c10@@@c10@@QEAA@PEBVSymInt@1@_K@Z
	??0?$ArrayRef@_J@c10@@QEAA@AEBV?$initializer_list@_J@std@@@Z
	??0?$InlineDeviceGuard@VVirtualGuardImpl@impl@c10@@@impl@c10@@QEAA@UDevice@2@@Z
	??0?$InlineEvent@VVirtualGuardImpl@impl@c10@@@impl@c10@@QEAA@$$QEAU012@@Z
	??0?$InlineEvent@VVirtualGuardImpl@impl@c10@@@impl@c10@@QEAA@W4DeviceType@2@W4EventFlag@2@@Z
	??0?$InlineMultiStreamGuard@VVirtualGuardImpl@impl@c10@@@impl@c10@@QEAA@V?$ArrayRef@VStream@c10@@@2@@Z
	??0?$InlineOptionalDeviceGuard@VVirtualGuardImpl@impl@c10@@@impl@c10@@QEAA@V?$optional@UDevice@c10@@@std@@@Z
	??0?$OptionalArrayRef@_J@c10@@QEAA@Unullopt_t@std@@@Z
	??0?$SingletonOrSharedTypePtr@UType@c10@@@Type@c10@@QEAA@$$QEAV012@@Z
	??0?$SingletonOrSharedTypePtr@UType@c10@@@Type@c10@@QEAA@AEBV012@@Z
	??0?$_Atomic_storage@_N$00@std@@QEAA@AEB_N@Z
	??0?$_Deleted_copy@U?$_Optional_construct_base@V?$InlineDeviceGuard@VVirtualGuardImpl@impl@c10@@@impl@c10@@@std@@@std@@QEAA@XZ
	??0?$_Deleted_copy_assign@U?$_Optional_construct_base@V?$InlineDeviceGuard@VVirtualGuardImpl@impl@c10@@@impl@c10@@@std@@V?$InlineDeviceGuard@VVirtualGuardImpl@impl@c10@@@impl@c10@@@std@@QEAA@XZ
	??0?$_Deleted_move@U?$_Optional_construct_base@V?$InlineDeviceGuard@VVirtualGuardImpl@impl@c10@@@impl@c10@@@std@@V?$InlineDeviceGuard@VVirtualGuardImpl@impl@c10@@@impl@c10@@@std@@QEAA@XZ
	??0?$_Deleted_move_assign@U?$_Optional_construct_base@V?$InlineDeviceGuard@VVirtualGuardImpl@impl@c10@@@impl@c10@@@std@@V?$InlineDeviceGuard@VVirtualGuardImpl@impl@c10@@@impl@c10@@@std@@QEAA@XZ
	??0?$_Func_class@UIValue@c10@@$$V@std@@QEAA@XZ
	??0?$_Func_class@VTensor@at@@$$V@std@@QEAA@XZ
	??0?$_Non_trivial_copy@U?$_Optional_construct_base@V?$vector@V?$weak_intrusive_ptr@UStorageImpl@c10@@U?$intrusive_target_default_null_type@UStorageImpl@c10@@@detail@2@@c10@@V?$allocator@V?$weak_intrusive_ptr@UStorageImpl@c10@@U?$intrusive_target_default_null_type@UStorageImpl@c10@@@detail@2@@c10@@@std@@@std@@@std@@@std@@QEAA@XZ
	??0?$_Non_trivial_copy@U?$_Optional_construct_base@VScalar@c10@@@std@@@std@@QEAA@XZ
	??0?$_Non_trivial_copy@U?$_Optional_construct_base@VTensor@at@@@std@@@std@@QEAA@XZ
	??0?$_Non_trivial_copy@U?$_Optional_construct_base@VVirtualGuardImpl@impl@c10@@@std@@@std@@QEAA@XZ
	??0?$_Non_trivial_copy_assign@U?$_Optional_construct_base@V?$vector@V?$weak_intrusive_ptr@UStorageImpl@c10@@U?$intrusive_target_default_null_type@UStorageImpl@c10@@@detail@2@@c10@@V?$allocator@V?$weak_intrusive_ptr@UStorageImpl@c10@@U?$intrusive_target_default_null_type@UStorageImpl@c10@@@detail@2@@c10@@@std@@@std@@@std@@V?$vector@V?$weak_intrusive_ptr@UStorageImpl@c10@@U?$intrusive_target_default_null_type@UStorageImpl@c10@@@detail@2@@c10@@V?$allocator@V?$weak_intrusive_ptr@UStorageImpl@c10@@U?$intrusive_target_default_null_type@UStorageImpl@c10@@@detail@2@@c10@@@std@@@2@@std@@QEAA@XZ
	??0?$_Non_trivial_copy_assign@U?$_Optional_construct_base@VScalar@c10@@@std@@VScalar@c10@@@std@@QEAA@XZ
	??0?$_Non_trivial_copy_assign@U?$_Optional_construct_base@VTensor@at@@@std@@VTensor@at@@@std@@QEAA@XZ
	??0?$_Non_trivial_copy_assign@U?$_Optional_construct_base@VVirtualGuardImpl@impl@c10@@@std@@VVirtualGuardImpl@impl@c10@@@std@@QEAA@XZ
	??0?$_Non_trivial_move@U?$_Optional_construct_base@V?$vector@V?$weak_intrusive_ptr@UStorageImpl@c10@@U?$intrusive_target_default_null_type@UStorageImpl@c10@@@detail@2@@c10@@V?$allocator@V?$weak_intrusive_ptr@UStorageImpl@c10@@U?$intrusive_target_default_null_type@UStorageImpl@c10@@@detail@2@@c10@@@std@@@std@@@std@@V?$vector@V?$weak_intrusive_ptr@UStorageImpl@c10@@U?$intrusive_target_default_null_type@UStorageImpl@c10@@@detail@2@@c10@@V?$allocator@V?$weak_intrusive_ptr@UStorageImpl@c10@@U?$intrusive_target_default_null_type@UStorageImpl@c10@@@detail@2@@c10@@@std@@@2@@std@@QEAA@XZ
	??0?$_Non_trivial_move@U?$_Optional_construct_base@VScalar@c10@@@std@@VScalar@c10@@@std@@QEAA@XZ
	??0?$_Non_trivial_move@U?$_Optional_construct_base@VTensor@at@@@std@@VTensor@at@@@std@@QEAA@XZ
	??0?$_Non_trivial_move@U?$_Optional_construct_base@VVirtualGuardImpl@impl@c10@@@std@@VVirtualGuardImpl@impl@c10@@@std@@QEAA@XZ
	??0?$_Non_trivial_move_assign@U?$_Optional_construct_base@V?$vector@V?$weak_intrusive_ptr@UStorageImpl@c10@@U?$intrusive_target_default_null_type@UStorageImpl@c10@@@detail@2@@c10@@V?$allocator@V?$weak_intrusive_ptr@UStorageImpl@c10@@U?$intrusive_target_default_null_type@UStorageImpl@c10@@@detail@2@@c10@@@std@@@std@@@std@@V?$vector@V?$weak_intrusive_ptr@UStorageImpl@c10@@U?$intrusive_target_default_null_type@UStorageImpl@c10@@@detail@2@@c10@@V?$allocator@V?$weak_intrusive_ptr@UStorageImpl@c10@@U?$intrusive_target_default_null_type@UStorageImpl@c10@@@detail@2@@c10@@@std@@@2@@std@@QEAA@XZ
	??0?$_Non_trivial_move_assign@U?$_Optional_construct_base@VScalar@c10@@@std@@VScalar@c10@@@std@@QEAA@XZ
	??0?$_Non_trivial_move_assign@U?$_Optional_construct_base@VTensor@at@@@std@@VTensor@at@@@std@@QEAA@XZ
	??0?$_Non_trivial_move_assign@U?$_Optional_construct_base@VVirtualGuardImpl@impl@c10@@@std@@VVirtualGuardImpl@impl@c10@@@std@@QEAA@XZ
	??0?$_Optional_construct_base@UDevice@c10@@@std@@QEAA@XZ
	??0?$_Optional_construct_base@V?$ArrayRef@VTensor@at@@@c10@@@std@@QEAA@XZ
	??0?$_Optional_construct_base@V?$ArrayRef@_J@c10@@@std@@QEAA@XZ
	??0?$_Optional_construct_base@V?$InlineDeviceGuard@VVirtualGuardImpl@impl@c10@@@impl@c10@@@std@@QEAA@XZ
	??0?$_Optional_construct_base@V?$vector@V?$weak_intrusive_ptr@UStorageImpl@c10@@U?$intrusive_target_default_null_type@UStorageImpl@c10@@@detail@2@@c10@@V?$allocator@V?$weak_intrusive_ptr@UStorageImpl@c10@@U?$intrusive_target_default_null_type@UStorageImpl@c10@@@detail@2@@c10@@@std@@@std@@@std@@QEAA@XZ
	??0?$_Optional_construct_base@VScalar@c10@@@std@@QEAA@XZ
	??0?$_Optional_construct_base@VTensor@at@@@std@@QEAA@XZ
	??0?$_Optional_construct_base@VVirtualGuardImpl@impl@c10@@@std@@QEAA@XZ
	??0?$_Optional_construct_base@W4MemoryFormat@c10@@@std@@QEAA@XZ
	??0?$_Optional_construct_base@W4ScalarType@c10@@@std@@QEAA@XZ
	??0?$_Optional_construct_base@_J@std@@QEAA@XZ
	??0?$_Optional_construct_base@_N@std@@QEAA@XZ
	??0?$_Optional_destruct_base@UDevice@c10@@$00@std@@QEAA@XZ
	??0?$_Optional_destruct_base@V?$ArrayRef@VTensor@at@@@c10@@$00@std@@QEAA@XZ
	??0?$_Optional_destruct_base@V?$ArrayRef@_J@c10@@$00@std@@QEAA@XZ
	??0?$_Optional_destruct_base@V?$InlineDeviceGuard@VVirtualGuardImpl@impl@c10@@@impl@c10@@$0A@@std@@QEAA@XZ
	??0?$_Optional_destruct_base@V?$vector@V?$weak_intrusive_ptr@UStorageImpl@c10@@U?$intrusive_target_default_null_type@UStorageImpl@c10@@@detail@2@@c10@@V?$allocator@V?$weak_intrusive_ptr@UStorageImpl@c10@@U?$intrusive_target_default_null_type@UStorageImpl@c10@@@detail@2@@c10@@@std@@@std@@$0A@@std@@QEAA@XZ
	??0?$_Optional_destruct_base@VScalar@c10@@$0A@@std@@QEAA@XZ
	??0?$_Optional_destruct_base@VTensor@at@@$0A@@std@@QEAA@XZ
	??0?$_Optional_destruct_base@VVirtualGuardImpl@impl@c10@@$0A@@std@@QEAA@XZ
	??0?$_Optional_destruct_base@W4MemoryFormat@c10@@$00@std@@QEAA@XZ
	??0?$_Optional_destruct_base@W4ScalarType@c10@@$00@std@@QEAA@XZ
	??0?$_Optional_destruct_base@_J$00@std@@QEAA@XZ
	??0?$_Optional_destruct_base@_N$00@std@@QEAA@XZ
	??0?$_Ptr_base@UAwaitType@c10@@@std@@IEAA@XZ
	??0?$_Ptr_base@UCompilationUnit@jit@torch@@@std@@IEAA@XZ
	??0?$_Ptr_base@UNode@autograd@torch@@@std@@IEAA@XZ
	??0?$_Ptr_base@USharedType@c10@@@std@@IEAA@XZ
	??0?$_Ptr_base@UType@c10@@@std@@IEAA@XZ
	??0?$_Ref_count@UAwaitType@c10@@@std@@QEAA@PEAUAwaitType@c10@@@Z
	??0?$_String_val@U?$_Simple_types@D@std@@@std@@QEAA@XZ
	??0?$_Temporary_owner@UAwaitType@c10@@@std@@QEAA@QEAUAwaitType@c10@@@Z
	??0?$_Uninitialized_backout_al@V?$allocator@I@std@@@std@@QEAA@PEAIAEAV?$allocator@I@1@@Z
	??0?$_Uninitialized_backout_al@V?$allocator@PEAUTF_Tensor@@@std@@@std@@QEAA@PEAPEAUTF_Tensor@@AEAV?$allocator@PEAUTF_Tensor@@@1@@Z
	??0?$_Uninitialized_backout_al@V?$allocator@UDevice@c10@@@std@@@std@@QEAA@PEAUDevice@c10@@AEAV?$allocator@UDevice@c10@@@1@@Z
	??0?$_Uninitialized_backout_al@V?$allocator@UEvent@c10@@@std@@@std@@QEAA@PEAUEvent@c10@@AEAV?$allocator@UEvent@c10@@@1@@Z
	??0?$_Uninitialized_backout_al@V?$allocator@UIValue@c10@@@std@@@std@@QEAA@PEAUIValue@c10@@AEAV?$allocator@UIValue@c10@@@1@@Z
	??0?$_Uninitialized_backout_al@V?$allocator@UTF_Output@@@std@@@std@@QEAA@PEAUTF_Output@@AEAV?$allocator@UTF_Output@@@1@@Z
	??0?$_Uninitialized_backout_al@V?$allocator@VStream@c10@@@std@@@std@@QEAA@PEAVStream@c10@@AEAV?$allocator@VStream@c10@@@1@@Z
	??0?$_Uninitialized_backout_al@V?$allocator@_J@std@@@std@@QEAA@PEA_JAEAV?$allocator@_J@1@@Z
	??0?$_Vb_const_iterator@U?$_Wrap_alloc@V?$allocator@I@std@@@std@@@std@@QEAA@PEBIPEBU_Container_base0@1@@Z
	??0?$_Vb_iter_base@U?$_Wrap_alloc@V?$allocator@I@std@@@std@@@std@@QEAA@PEBI_KPEBU_Container_base0@1@@Z
	??0?$_Vb_iterator@U?$_Wrap_alloc@V?$allocator@I@std@@@std@@@std@@QEAA@PEBIPEBU_Container_base0@1@@Z
	??0?$_Vb_reference@U?$_Wrap_alloc@V?$allocator@I@std@@@std@@@std@@QEAA@AEBV?$_Vb_iter_base@U?$_Wrap_alloc@V?$allocator@I@std@@@std@@@1@@Z
	??0?$_Vb_val@V?$allocator@_N@std@@@std@@QEAA@_KAEB_NAEBV?$allocator@_N@1@@Z
	??0?$_Vector_const_iterator@V?$_Vector_val@U?$_Simple_types@I@std@@@std@@@std@@QEAA@PEAIPEBU_Container_base0@1@@Z
	??0?$_Vector_const_iterator@V?$_Vector_val@U?$_Simple_types@UDevice@c10@@@std@@@std@@@std@@QEAA@PEAUDevice@c10@@PEBU_Container_base0@1@@Z
	??0?$_Vector_const_iterator@V?$_Vector_val@U?$_Simple_types@UIValue@c10@@@std@@@std@@@std@@QEAA@PEAUIValue@c10@@PEBU_Container_base0@1@@Z
	??0?$_Vector_iterator@V?$_Vector_val@U?$_Simple_types@I@std@@@std@@@std@@QEAA@PEAIPEBU_Container_base0@1@@Z
	??0?$_Vector_iterator@V?$_Vector_val@U?$_Simple_types@UDevice@c10@@@std@@@std@@@std@@QEAA@PEAUDevice@c10@@PEBU_Container_base0@1@@Z
	??0?$_Vector_iterator@V?$_Vector_val@U?$_Simple_types@UIValue@c10@@@std@@@std@@@std@@QEAA@PEAUIValue@c10@@PEBU_Container_base0@1@@Z
	??0?$_Vector_val@U?$_Simple_types@I@std@@@std@@QEAA@XZ
	??0?$_Vector_val@U?$_Simple_types@PEAUTF_Tensor@@@std@@@std@@QEAA@XZ
	??0?$_Vector_val@U?$_Simple_types@UDevice@c10@@@std@@@std@@QEAA@PEAUDevice@c10@@00@Z
	??0?$_Vector_val@U?$_Simple_types@UDevice@c10@@@std@@@std@@QEAA@XZ
	??0?$_Vector_val@U?$_Simple_types@UEvent@c10@@@std@@@std@@QEAA@XZ
	??0?$_Vector_val@U?$_Simple_types@UFutureCallback@Future@ivalue@c10@@@std@@@std@@QEAA@XZ
	??0?$_Vector_val@U?$_Simple_types@UIValue@c10@@@std@@@std@@QEAA@PEAUIValue@c10@@00@Z
	??0?$_Vector_val@U?$_Simple_types@UIValue@c10@@@std@@@std@@QEAA@XZ
	??0?$_Vector_val@U?$_Simple_types@UTF_Output@@@std@@@std@@QEAA@XZ
	??0?$_Vector_val@U?$_Simple_types@V?$weak_intrusive_ptr@UStorageImpl@c10@@U?$intrusive_target_default_null_type@UStorageImpl@c10@@@detail@2@@c10@@@std@@@std@@QEAA@PEAV?$weak_intrusive_ptr@UStorageImpl@c10@@U?$intrusive_target_default_null_type@UStorageImpl@c10@@@detail@2@@c10@@00@Z
	??0?$_Vector_val@U?$_Simple_types@V?$weak_intrusive_ptr@UStorageImpl@c10@@U?$intrusive_target_default_null_type@UStorageImpl@c10@@@detail@2@@c10@@@std@@@std@@QEAA@XZ
	??0?$_Vector_val@U?$_Simple_types@VStream@c10@@@std@@@std@@QEAA@XZ
	??0?$_Vector_val@U?$_Simple_types@_J@std@@@std@@QEAA@XZ
	??0?$allocator@D@std@@QEAA@XZ
	??0?$allocator@PEAUTF_Tensor@@@std@@QEAA@XZ
	??0?$allocator@UDevice@c10@@@std@@QEAA@XZ
	??0?$allocator@UEvent@c10@@@std@@QEAA@XZ
	??0?$allocator@UFutureCallback@Future@ivalue@c10@@@std@@QEAA@XZ
	??0?$allocator@UIValue@c10@@@std@@QEAA@XZ
	??0?$allocator@UTF_Output@@@std@@QEAA@XZ
	??0?$allocator@V?$weak_intrusive_ptr@UStorageImpl@c10@@U?$intrusive_target_default_null_type@UStorageImpl@c10@@@detail@2@@c10@@@std@@QEAA@XZ
	??0?$allocator@VStream@c10@@@std@@QEAA@XZ
	??0?$allocator@_J@std@@QEAA@XZ
	??0?$allocator@_N@std@@QEAA@XZ
	??0?$atomic@_N@std@@QEAA@_N@Z
	??0?$back_insert_iterator@V?$vector@UDevice@c10@@V?$allocator@UDevice@c10@@@std@@@std@@@std@@QEAA@AEAV?$vector@UDevice@c10@@V?$allocator@UDevice@c10@@@std@@@1@@Z
	??0?$basic_ostringstream@DU?$char_traits@D@std@@V?$allocator@D@2@@std@@QEAA@XZ
	??0?$basic_string@DU?$char_traits@D@std@@V?$allocator@D@2@@std@@QEAA@$$QEAV01@@Z
	??0?$basic_string@DU?$char_traits@D@std@@V?$allocator@D@2@@std@@QEAA@AEBV?$allocator@D@1@@Z
	??0?$basic_string@DU?$char_traits@D@std@@V?$allocator@D@2@@std@@QEAA@QEBD@Z
	??0?$basic_stringbuf@DU?$char_traits@D@std@@V?$allocator@D@2@@std@@QEAA@H@Z
	??0?$fpos@U_Mbstatet@@@std@@QEAA@_J@Z
	??0?$function@$$A6A?AUIValue@c10@@XZ@std@@QEAA@$$QEAV01@@Z
	??0?$function@$$A6A?AUIValue@c10@@XZ@std@@QEAA@XZ
	??0?$function@$$A6A?AVTensor@at@@XZ@std@@QEAA@$$T@Z
	??0?$initializer_list@UIValue@c10@@@std@@QEAA@XZ
	??0?$initializer_list@_J@std@@QEAA@PEB_J0@Z
	??0?$integer_iterator@_K$00$0A@@detail@c10@@QEAA@_K@Z
	??0?$integer_iterator@_K$0A@$0A@@detail@c10@@QEAA@_K@Z
	??0?$integer_range@_K$00$00@c10@@QEAA@_K0@Z
	??0?$integer_range@_K$0A@$00@c10@@QEAA@_K0@Z
	??0?$intrusive_ptr@UFuture@ivalue@c10@@U?$intrusive_target_default_null_type@UFuture@ivalue@c10@@@detail@3@@c10@@AEAA@PEAUFuture@ivalue@1@@Z
	??0?$intrusive_ptr@UFuture@ivalue@c10@@U?$intrusive_target_default_null_type@UFuture@ivalue@c10@@@detail@3@@c10@@QEAA@PEAUFuture@ivalue@1@UDontIncreaseRefcount@raw@1@@Z
	??0?$intrusive_ptr@UObject@ivalue@c10@@U?$intrusive_target_default_null_type@UObject@ivalue@c10@@@detail@3@@c10@@AEAA@PEAUObject@ivalue@1@@Z
	??0?$intrusive_ptr@UObject@ivalue@c10@@U?$intrusive_target_default_null_type@UObject@ivalue@c10@@@detail@3@@c10@@QEAA@PEAUObject@ivalue@1@UDontIncreaseRefcount@raw@1@@Z
	??0?$intrusive_ptr@UStorageImpl@c10@@U?$intrusive_target_default_null_type@UStorageImpl@c10@@@detail@2@@c10@@QEAA@PEAUStorageImpl@1@UDontIncreaseRefcount@raw@1@@Z
	??0?$intrusive_ptr@UStorageImpl@c10@@U?$intrusive_target_default_null_type@UStorageImpl@c10@@@detail@2@@c10@@QEAA@XZ
	??0?$intrusive_ptr@UTensorImpl@c10@@UUndefinedTensorImpl@2@@c10@@QEAA@$$QEAV01@@Z
	??0?$optional@UDevice@c10@@@std@@QEAA@XZ
	??0?$optional@V?$ArrayRef@VTensor@at@@@c10@@@std@@QEAA@Unullopt_t@1@@Z
	??0?$optional@V?$ArrayRef@_J@c10@@@std@@QEAA@XZ
	??0?$optional@V?$InlineDeviceGuard@VVirtualGuardImpl@impl@c10@@@impl@c10@@@std@@QEAA@XZ
	??0?$optional@V?$vector@V?$weak_intrusive_ptr@UStorageImpl@c10@@U?$intrusive_target_default_null_type@UStorageImpl@c10@@@detail@2@@c10@@V?$allocator@V?$weak_intrusive_ptr@UStorageImpl@c10@@U?$intrusive_target_default_null_type@UStorageImpl@c10@@@detail@2@@c10@@@std@@@std@@@std@@QEAA@Unullopt_t@1@@Z
	??0?$optional@VScalar@c10@@@std@@QEAA@Unullopt_t@1@@Z
	??0?$optional@VTensor@at@@@std@@QEAA@XZ
	??0?$optional@VVirtualGuardImpl@impl@c10@@@std@@QEAA@XZ
	??0?$optional@W4MemoryFormat@c10@@@std@@QEAA@Unullopt_t@1@@Z
	??0?$optional@W4ScalarType@c10@@@std@@QEAA@Unullopt_t@1@@Z
	??0?$optional@_J@std@@QEAA@Unullopt_t@1@@Z
	??0?$optional@_N@std@@QEAA@Unullopt_t@1@@Z
	??0?$shared_ptr@UCompilationUnit@jit@torch@@@std@@QEAA@AEBV01@@Z
	??0?$shared_ptr@UNode@autograd@torch@@@std@@QEAA@$$T@Z
	??0?$shared_ptr@UType@c10@@@std@@QEAA@$$QEAV01@@Z
	??0?$shared_ptr@UType@c10@@@std@@QEAA@AEBV01@@Z
	??0?$unique_lock@Vmutex@std@@@std@@QEAA@AEAVmutex@1@@Z
	??0?$vector@PEAUTF_Tensor@@V?$allocator@PEAUTF_Tensor@@@std@@@std@@QEAA@_KAEBV?$allocator@PEAUTF_Tensor@@@1@@Z
	??0?$vector@UDevice@c10@@V?$allocator@UDevice@c10@@@std@@@std@@QEAA@$$QEAV01@@Z
	??0?$vector@UDevice@c10@@V?$allocator@UDevice@c10@@@std@@@std@@QEAA@AEBV01@@Z
	??0?$vector@UDevice@c10@@V?$allocator@UDevice@c10@@@std@@@std@@QEAA@XZ
	??0?$vector@UEvent@c10@@V?$allocator@UEvent@c10@@@std@@@std@@QEAA@XZ
	??0?$vector@UFutureCallback@Future@ivalue@c10@@V?$allocator@UFutureCallback@Future@ivalue@c10@@@std@@@std@@QEAA@XZ
	??0?$vector@UIValue@c10@@V?$allocator@UIValue@c10@@@std@@@std@@QEAA@$$QEAV01@@Z
	??0?$vector@UIValue@c10@@V?$allocator@UIValue@c10@@@std@@@std@@QEAA@AEBV01@@Z
	??0?$vector@UIValue@c10@@V?$allocator@UIValue@c10@@@std@@@std@@QEAA@XZ
	??0?$vector@UTF_Output@@V?$allocator@UTF_Output@@@std@@@std@@QEAA@_KAEBV?$allocator@UTF_Output@@@1@@Z
	??0?$vector@V?$weak_intrusive_ptr@UStorageImpl@c10@@U?$intrusive_target_default_null_type@UStorageImpl@c10@@@detail@2@@c10@@V?$allocator@V?$weak_intrusive_ptr@UStorageImpl@c10@@U?$intrusive_target_default_null_type@UStorageImpl@c10@@@detail@2@@c10@@@std@@@std@@QEAA@$$QEAV01@@Z
	??0?$vector@V?$weak_intrusive_ptr@UStorageImpl@c10@@U?$intrusive_target_default_null_type@UStorageImpl@c10@@@detail@2@@c10@@V?$allocator@V?$weak_intrusive_ptr@UStorageImpl@c10@@U?$intrusive_target_default_null_type@UStorageImpl@c10@@@detail@2@@c10@@@std@@@std@@QEAA@XZ
	??0?$vector@VStream@c10@@V?$allocator@VStream@c10@@@std@@@std@@QEAA@XZ
	??0?$vector@_JV?$allocator@_J@std@@@std@@QEAA@_KAEBV?$allocator@_J@1@@Z
	??0?$vector@_NV?$allocator@_N@std@@@std@@QEAA@_KAEB_NAEBV?$allocator@_N@1@@Z
	??0?$weak_ptr@UCompilationUnit@jit@torch@@@std@@QEAA@AEBV01@@Z
	??0Await@ivalue@c10@@AEAA@V?$SingletonOrSharedTypePtr@UType@c10@@@Type@2@@Z
	??0Await@ivalue@c10@@AEAA@V?$SingletonOrSharedTypePtr@UType@c10@@@Type@2@V?$function@$$A6A?AUIValue@c10@@XZ@std@@@Z
	??0Edge@autograd@torch@@QEAA@XZ
	??0Event@c10@@QEAA@$$QEAU01@@Z
	??0Event@c10@@QEAA@W4DeviceType@1@W4EventFlag@1@@Z
	??0Future@ivalue@c10@@AEAA@V?$SingletonOrSharedTypePtr@UType@c10@@@Type@2@V?$vector@UDevice@c10@@V?$allocator@UDevice@c10@@@std@@@std@@@Z
	??0MultiStreamGuard@c10@@QEAA@V?$ArrayRef@VStream@c10@@@1@@Z
	??0NoTracerDispatchMode@impl@tracer@at@@QEAA@XZ
	??0Object@ivalue@c10@@QEAA@$$QEAU012@@Z
	??0Object@ivalue@c10@@QEAA@AEBU012@@Z
	??0Object@ivalue@c10@@QEAA@UStrongTypePtr@2@_K@Z
	??0Object@ivalue@c10@@QEAA@UWeakOrStrongTypePtr@2@_K@Z
	??0OptionalDeviceGuard@c10@@QEAA@UDevice@1@@Z
	??0OptionalDeviceGuard@c10@@QEAA@V?$optional@UDevice@c10@@@std@@@Z
	??0RRefInterface@c10@@QEAA@XZ
	??0Repr@?$SingletonOrSharedTypePtr@UType@c10@@@Type@c10@@QEAA@$$QEAT0123@@Z
	??0Repr@?$SingletonOrSharedTypePtr@UType@c10@@@Type@c10@@QEAA@AEBT0123@@Z
	??0Repr@?$SingletonOrSharedTypePtr@UType@c10@@@Type@c10@@QEAA@V?$shared_ptr@UType@c10@@@std@@@Z
	??0SharedPtrWrapper@?$SingletonOrSharedTypePtr@UType@c10@@@Type@c10@@QEAA@$$QEAU0123@@Z
	??0SharedPtrWrapper@?$SingletonOrSharedTypePtr@UType@c10@@@Type@c10@@QEAA@$$QEAV?$shared_ptr@UType@c10@@@std@@@Z
	??0SharedPtrWrapper@?$SingletonOrSharedTypePtr@UType@c10@@@Type@c10@@QEAA@AEBU0123@@Z
	??0VirtualGuardImpl@impl@c10@@QEAA@$$QEAV012@@Z
	??0VirtualGuardImpl@impl@c10@@QEAA@W4DeviceType@2@@Z
	??0_Bxty@?$_String_val@U?$_Simple_types@D@std@@@std@@QEAA@XZ
	??0_Fake_proxy_ptr_impl@std@@QEAA@AEBU_Fake_allocator@1@AEBU_Container_base0@1@@Z
	??0_Mutex_base@std@@QEAA@H@Z
	??0_Nontrivial_dummy_type@std@@QEAA@XZ
	??0_Ref_count_base@std@@IEAA@XZ
	??0_Sentry_base@?$basic_ostream@DU?$char_traits@D@std@@@std@@QEAA@AEAV12@@Z
	??0_System_error@std@@IEAA@Verror_code@1@@Z
	??0_System_error@std@@QEAA@AEBV01@@Z
	??0bad_alloc@std@@AEAA@QEBD@Z
	??0bad_alloc@std@@QEAA@AEBV01@@Z
	??0bad_array_new_length@std@@QEAA@AEBV01@@Z
	??0bad_array_new_length@std@@QEAA@XZ
	??0bad_optional_access@std@@QEAA@AEBV01@@Z
	??0bad_optional_access@std@@QEAA@XZ
	??0bad_weak_ptr@std@@QEAA@AEBV01@@Z
	??0bad_weak_ptr@std@@QEAA@XZ
	??0condition_variable@std@@QEAA@XZ
	??0error_code@std@@QEAA@HAEBVerror_category@1@@Z
	??0error_condition@std@@QEAA@HAEBVerror_category@1@@Z
	??0exception@std@@QEAA@AEBV01@@Z
	??0exception@std@@QEAA@QEBD@Z
	??0exception@std@@QEAA@QEBDH@Z
	??0exception@std@@QEAA@XZ
	??0exception_ptr@std@@QEAA@AEBV01@@Z
	??0exception_ptr@std@@QEAA@XZ
	??0mutex@std@@QEAA@XZ
	??0runtime_error@std@@QEAA@AEBV01@@Z
	??0runtime_error@std@@QEAA@AEBV?$basic_string@DU?$char_traits@D@std@@V?$allocator@D@2@@1@@Z
	??0sentry@?$basic_ostream@DU?$char_traits@D@std@@@std@@QEAA@AEAV12@@Z
	??0system_error@std@@QEAA@AEBV01@@Z
	??0system_error@std@@QEAA@Verror_code@1@@Z
	??1?$InlineDeviceGuard@VVirtualGuardImpl@impl@c10@@@impl@c10@@QEAA@XZ
	??1?$InlineEvent@VVirtualGuardImpl@impl@c10@@@impl@c10@@QEAA@XZ
	??1?$InlineMultiStreamGuard@VVirtualGuardImpl@impl@c10@@@impl@c10@@QEAA@XZ
	??1?$InlineOptionalDeviceGuard@VVirtualGuardImpl@impl@c10@@@impl@c10@@QEAA@XZ
	??1?$SingletonOrSharedTypePtr@UType@c10@@@Type@c10@@QEAA@XZ
	??1?$_Compressed_pair@V?$allocator@D@std@@V?$_String_val@U?$_Simple_types@D@std@@@2@$00@std@@QEAA@XZ
	??1?$_Deleted_copy@U?$_Optional_construct_base@V?$InlineDeviceGuard@VVirtualGuardImpl@impl@c10@@@impl@c10@@@std@@@std@@QEAA@XZ
	??1?$_Deleted_copy_assign@U?$_Optional_construct_base@V?$InlineDeviceGuard@VVirtualGuardImpl@impl@c10@@@impl@c10@@@std@@V?$InlineDeviceGuard@VVirtualGuardImpl@impl@c10@@@impl@c10@@@std@@QEAA@XZ
	??1?$_Deleted_move@U?$_Optional_construct_base@V?$InlineDeviceGuard@VVirtualGuardImpl@impl@c10@@@impl@c10@@@std@@V?$InlineDeviceGuard@VVirtualGuardImpl@impl@c10@@@impl@c10@@@std@@QEAA@XZ
	??1?$_Deleted_move_assign@U?$_Optional_construct_base@V?$InlineDeviceGuard@VVirtualGuardImpl@impl@c10@@@impl@c10@@@std@@V?$InlineDeviceGuard@VVirtualGuardImpl@impl@c10@@@impl@c10@@@std@@QEAA@XZ
	??1?$_Func_class@UIValue@c10@@$$V@std@@QEAA@XZ
	??1?$_Func_class@VTensor@at@@$$V@std@@QEAA@XZ
	??1?$_Func_class@XAEAUFuture@ivalue@c10@@@std@@QEAA@XZ
	??1?$_Non_trivial_copy@U?$_Optional_construct_base@V?$vector@V?$weak_intrusive_ptr@UStorageImpl@c10@@U?$intrusive_target_default_null_type@UStorageImpl@c10@@@detail@2@@c10@@V?$allocator@V?$weak_intrusive_ptr@UStorageImpl@c10@@U?$intrusive_target_default_null_type@UStorageImpl@c10@@@detail@2@@c10@@@std@@@std@@@std@@@std@@QEAA@XZ
	??1?$_Non_trivial_copy@U?$_Optional_construct_base@VScalar@c10@@@std@@@std@@QEAA@XZ
	??1?$_Non_trivial_copy@U?$_Optional_construct_base@VTensor@at@@@std@@@std@@QEAA@XZ
	??1?$_Non_trivial_copy@U?$_Optional_construct_base@VVirtualGuardImpl@impl@c10@@@std@@@std@@QEAA@XZ
	??1?$_Non_trivial_copy_assign@U?$_Optional_construct_base@V?$vector@V?$weak_intrusive_ptr@UStorageImpl@c10@@U?$intrusive_target_default_null_type@UStorageImpl@c10@@@detail@2@@c10@@V?$allocator@V?$weak_intrusive_ptr@UStorageImpl@c10@@U?$intrusive_target_default_null_type@UStorageImpl@c10@@@detail@2@@c10@@@std@@@std@@@std@@V?$vector@V?$weak_intrusive_ptr@UStorageImpl@c10@@U?$intrusive_target_default_null_type@UStorageImpl@c10@@@detail@2@@c10@@V?$allocator@V?$weak_intrusive_ptr@UStorageImpl@c10@@U?$intrusive_target_default_null_type@UStorageImpl@c10@@@detail@2@@c10@@@std@@@2@@std@@QEAA@XZ
	??1?$_Non_trivial_copy_assign@U?$_Optional_construct_base@VScalar@c10@@@std@@VScalar@c10@@@std@@QEAA@XZ
	??1?$_Non_trivial_copy_assign@U?$_Optional_construct_base@VTensor@at@@@std@@VTensor@at@@@std@@QEAA@XZ
	??1?$_Non_trivial_copy_assign@U?$_Optional_construct_base@VVirtualGuardImpl@impl@c10@@@std@@VVirtualGuardImpl@impl@c10@@@std@@QEAA@XZ
	??1?$_Non_trivial_move@U?$_Optional_construct_base@V?$vector@V?$weak_intrusive_ptr@UStorageImpl@c10@@U?$intrusive_target_default_null_type@UStorageImpl@c10@@@detail@2@@c10@@V?$allocator@V?$weak_intrusive_ptr@UStorageImpl@c10@@U?$intrusive_target_default_null_type@UStorageImpl@c10@@@detail@2@@c10@@@std@@@std@@@std@@V?$vector@V?$weak_intrusive_ptr@UStorageImpl@c10@@U?$intrusive_target_default_null_type@UStorageImpl@c10@@@detail@2@@c10@@V?$allocator@V?$weak_intrusive_ptr@UStorageImpl@c10@@U?$intrusive_target_default_null_type@UStorageImpl@c10@@@detail@2@@c10@@@std@@@2@@std@@QEAA@XZ
	??1?$_Non_trivial_move@U?$_Optional_construct_base@VScalar@c10@@@std@@VScalar@c10@@@std@@QEAA@XZ
	??1?$_Non_trivial_move@U?$_Optional_construct_base@VTensor@at@@@std@@VTensor@at@@@std@@QEAA@XZ
	??1?$_Non_trivial_move@U?$_Optional_construct_base@VVirtualGuardImpl@impl@c10@@@std@@VVirtualGuardImpl@impl@c10@@@std@@QEAA@XZ
	??1?$_Non_trivial_move_assign@U?$_Optional_construct_base@V?$vector@V?$weak_intrusive_ptr@UStorageImpl@c10@@U?$intrusive_target_default_null_type@UStorageImpl@c10@@@detail@2@@c10@@V?$allocator@V?$weak_intrusive_ptr@UStorageImpl@c10@@U?$intrusive_target_default_null_type@UStorageImpl@c10@@@detail@2@@c10@@@std@@@std@@@std@@V?$vector@V?$weak_intrusive_ptr@UStorageImpl@c10@@U?$intrusive_target_default_null_type@UStorageImpl@c10@@@detail@2@@c10@@V?$allocator@V?$weak_intrusive_ptr@UStorageImpl@c10@@U?$intrusive_target_default_null_type@UStorageImpl@c10@@@detail@2@@c10@@@std@@@2@@std@@QEAA@XZ
	??1?$_Non_trivial_move_assign@U?$_Optional_construct_base@VScalar@c10@@@std@@VScalar@c10@@@std@@QEAA@XZ
	??1?$_Non_trivial_move_assign@U?$_Optional_construct_base@VTensor@at@@@std@@VTensor@at@@@std@@QEAA@XZ
	??1?$_Non_trivial_move_assign@U?$_Optional_construct_base@VVirtualGuardImpl@impl@c10@@@std@@VVirtualGuardImpl@impl@c10@@@std@@QEAA@XZ
	??1?$_Optional_construct_base@V?$InlineDeviceGuard@VVirtualGuardImpl@impl@c10@@@impl@c10@@@std@@QEAA@XZ
	??1?$_Optional_construct_base@V?$vector@V?$weak_intrusive_ptr@UStorageImpl@c10@@U?$intrusive_target_default_null_type@UStorageImpl@c10@@@detail@2@@c10@@V?$allocator@V?$weak_intrusive_ptr@UStorageImpl@c10@@U?$intrusive_target_default_null_type@UStorageImpl@c10@@@detail@2@@c10@@@std@@@std@@@std@@QEAA@XZ
	??1?$_Optional_construct_base@VScalar@c10@@@std@@QEAA@XZ
	??1?$_Optional_construct_base@VTensor@at@@@std@@QEAA@XZ
	??1?$_Optional_construct_base@VVirtualGuardImpl@impl@c10@@@std@@QEAA@XZ
	??1?$_Optional_destruct_base@V?$InlineDeviceGuard@VVirtualGuardImpl@impl@c10@@@impl@c10@@$0A@@std@@QEAA@XZ
	??1?$_Optional_destruct_base@V?$vector@V?$weak_intrusive_ptr@UStorageImpl@c10@@U?$intrusive_target_default_null_type@UStorageImpl@c10@@@detail@2@@c10@@V?$allocator@V?$weak_intrusive_ptr@UStorageImpl@c10@@U?$intrusive_target_default_null_type@UStorageImpl@c10@@@detail@2@@c10@@@std@@@std@@$0A@@std@@QEAA@XZ
	??1?$_Optional_destruct_base@VScalar@c10@@$0A@@std@@QEAA@XZ
	??1?$_Optional_destruct_base@VTensor@at@@$0A@@std@@QEAA@XZ
	??1?$_Optional_destruct_base@VVirtualGuardImpl@impl@c10@@$0A@@std@@QEAA@XZ
	??1?$_Ref_count@UAwaitType@c10@@@std@@UEAA@XZ
	??1?$_String_val@U?$_Simple_types@D@std@@@std@@QEAA@XZ
	??1?$_Temporary_owner@UAwaitType@c10@@@std@@QEAA@XZ
	??1?$_Tidy_guard@V?$vector@IV?$allocator@I@std@@@std@@@std@@QEAA@XZ
	??1?$_Tidy_guard@V?$vector@PEAUTF_Tensor@@V?$allocator@PEAUTF_Tensor@@@std@@@std@@@std@@QEAA@XZ
	??1?$_Tidy_guard@V?$vector@UDevice@c10@@V?$allocator@UDevice@c10@@@std@@@std@@@std@@QEAA@XZ
	??1?$_Tidy_guard@V?$vector@UIValue@c10@@V?$allocator@UIValue@c10@@@std@@@std@@@std@@QEAA@XZ
	??1?$_Tidy_guard@V?$vector@UTF_Output@@V?$allocator@UTF_Output@@@std@@@std@@@std@@QEAA@XZ
	??1?$_Tidy_guard@V?$vector@_JV?$allocator@_J@std@@@std@@@std@@QEAA@XZ
	??1?$_Uninitialized_backout_al@V?$allocator@I@std@@@std@@QEAA@XZ
	??1?$_Uninitialized_backout_al@V?$allocator@PEAUTF_Tensor@@@std@@@std@@QEAA@XZ
	??1?$_Uninitialized_backout_al@V?$allocator@UDevice@c10@@@std@@@std@@QEAA@XZ
	??1?$_Uninitialized_backout_al@V?$allocator@UEvent@c10@@@std@@@std@@QEAA@XZ
	??1?$_Uninitialized_backout_al@V?$allocator@UIValue@c10@@@std@@@std@@QEAA@XZ
	??1?$_Uninitialized_backout_al@V?$allocator@UTF_Output@@@std@@@std@@QEAA@XZ
	??1?$_Uninitialized_backout_al@V?$allocator@VStream@c10@@@std@@@std@@QEAA@XZ
	??1?$_Uninitialized_backout_al@V?$allocator@_J@std@@@std@@QEAA@XZ
	??1?$_Vb_val@V?$allocator@_N@std@@@std@@QEAA@XZ
	??1?$basic_ostringstream@DU?$char_traits@D@std@@V?$allocator@D@2@@std@@UEAA@XZ
	??1?$basic_string@DU?$char_traits@D@std@@V?$allocator@D@2@@std@@QEAA@XZ
	??1?$basic_stringbuf@DU?$char_traits@D@std@@V?$allocator@D@2@@std@@UEAA@XZ
	??1?$function@$$A6A?AUIValue@c10@@XZ@std@@QEAA@XZ
	??1?$function@$$A6A?AVTensor@at@@XZ@std@@QEAA@XZ
	??1?$function@$$A6AXAEAUFuture@ivalue@c10@@@Z@std@@QEAA@XZ
	??1?$intrusive_ptr@UFuture@ivalue@c10@@U?$intrusive_target_default_null_type@UFuture@ivalue@c10@@@detail@3@@c10@@QEAA@XZ
	??1?$intrusive_ptr@UObject@ivalue@c10@@U?$intrusive_target_default_null_type@UObject@ivalue@c10@@@detail@3@@c10@@QEAA@XZ
	??1?$intrusive_ptr@UStorageImpl@c10@@U?$intrusive_target_default_null_type@UStorageImpl@c10@@@detail@2@@c10@@QEAA@XZ
	??1?$intrusive_ptr@UTensorImpl@c10@@U?$intrusive_target_default_null_type@UTensorImpl@c10@@@detail@2@@c10@@QEAA@XZ
	??1?$intrusive_ptr@UTensorImpl@c10@@UUndefinedTensorImpl@2@@c10@@QEAA@XZ
	??1?$optional@V?$InlineDeviceGuard@VVirtualGuardImpl@impl@c10@@@impl@c10@@@std@@QEAA@XZ
	??1?$optional@V?$vector@V?$weak_intrusive_ptr@UStorageImpl@c10@@U?$intrusive_target_default_null_type@UStorageImpl@c10@@@detail@2@@c10@@V?$allocator@V?$weak_intrusive_ptr@UStorageImpl@c10@@U?$intrusive_target_default_null_type@UStorageImpl@c10@@@detail@2@@c10@@@std@@@std@@@std@@QEAA@XZ
	??1?$optional@VScalar@c10@@@std@@QEAA@XZ
	??1?$optional@VTensor@at@@@std@@QEAA@XZ
	??1?$optional@VVirtualGuardImpl@impl@c10@@@std@@QEAA@XZ
	??1?$shared_ptr@UAwaitType@c10@@@std@@QEAA@XZ
	??1?$shared_ptr@UCompilationUnit@jit@torch@@@std@@QEAA@XZ
	??1?$shared_ptr@UNode@autograd@torch@@@std@@QEAA@XZ
	??1?$shared_ptr@UType@c10@@@std@@QEAA@XZ
	??1?$unique_lock@Vmutex@std@@@std@@QEAA@XZ
	??1?$unique_ptr@UAutogradMeta@autograd@torch@@U?$default_delete@UAutogradMeta@autograd@torch@@@std@@@std@@QEAA@XZ
	??1?$unique_ptr@UAutogradMetaInterface@c10@@U?$default_delete@UAutogradMetaInterface@c10@@@std@@@std@@QEAA@XZ
	??1?$vector@IV?$allocator@I@std@@@std@@QEAA@XZ
	??1?$vector@PEAUTF_Tensor@@V?$allocator@PEAUTF_Tensor@@@std@@@std@@QEAA@XZ
	??1?$vector@UDevice@c10@@V?$allocator@UDevice@c10@@@std@@@std@@QEAA@XZ
	??1?$vector@UEvent@c10@@V?$allocator@UEvent@c10@@@std@@@std@@QEAA@XZ
	??1?$vector@UFutureCallback@Future@ivalue@c10@@V?$allocator@UFutureCallback@Future@ivalue@c10@@@std@@@std@@QEAA@XZ
	??1?$vector@UIValue@c10@@V?$allocator@UIValue@c10@@@std@@@std@@QEAA@XZ
	??1?$vector@UTF_Output@@V?$allocator@UTF_Output@@@std@@@std@@QEAA@XZ
	??1?$vector@V?$weak_intrusive_ptr@UStorageImpl@c10@@U?$intrusive_target_default_null_type@UStorageImpl@c10@@@detail@2@@c10@@V?$allocator@V?$weak_intrusive_ptr@UStorageImpl@c10@@U?$intrusive_target_default_null_type@UStorageImpl@c10@@@detail@2@@c10@@@std@@@std@@QEAA@XZ
	??1?$vector@VStream@c10@@V?$allocator@VStream@c10@@@std@@@std@@QEAA@XZ
	??1?$vector@VTensor@at@@V?$allocator@VTensor@at@@@std@@@std@@QEAA@XZ
	??1?$vector@_JV?$allocator@_J@std@@@std@@QEAA@XZ
	??1?$vector@_NV?$allocator@_N@std@@@std@@QEAA@XZ
	??1?$weak_intrusive_ptr@UStorageImpl@c10@@U?$intrusive_target_default_null_type@UStorageImpl@c10@@@detail@2@@c10@@QEAA@XZ
	??1?$weak_ptr@UCompilationUnit@jit@torch@@@std@@QEAA@XZ
	??1?$weak_ptr@USharedType@c10@@@std@@QEAA@XZ
	??1Await@ivalue@c10@@UEAA@XZ
	??1Edge@autograd@torch@@QEAA@XZ
	??1Event@c10@@QEAA@XZ
	??1Future@ivalue@c10@@UEAA@XZ
	??1FutureCallback@Future@ivalue@c10@@QEAA@XZ
	??1MultiStreamGuard@c10@@QEAA@XZ
	??1NoTracerDispatchMode@impl@tracer@at@@QEAA@XZ
	??1Object@ivalue@c10@@UEAA@XZ
	??1OptionalDeviceGuard@c10@@QEAA@XZ
	??1RRefInterface@c10@@UEAA@XZ
	??1Repr@?$SingletonOrSharedTypePtr@UType@c10@@@Type@c10@@QEAA@XZ
	??1SharedPtrWrapper@?$SingletonOrSharedTypePtr@UType@c10@@@Type@c10@@QEAA@XZ
	??1VirtualGuardImpl@impl@c10@@UEAA@XZ
	??1_Bxty@?$_String_val@U?$_Simple_types@D@std@@@std@@QEAA@XZ
	??1_Generic_error_category@std@@UEAA@XZ
	??1_Reallocation_guard@?$vector@UDevice@c10@@V?$allocator@UDevice@c10@@@std@@@std@@QEAA@XZ
	??1_Reallocation_guard@?$vector@UEvent@c10@@V?$allocator@UEvent@c10@@@std@@@std@@QEAA@XZ
	??1_Reallocation_guard@?$vector@UIValue@c10@@V?$allocator@UIValue@c10@@@std@@@std@@QEAA@XZ
	??1_Reallocation_guard@?$vector@VStream@c10@@V?$allocator@VStream@c10@@@std@@@std@@QEAA@XZ
	??1_Ref_count_base@std@@UEAA@XZ
	??1_Sentry_base@?$basic_ostream@DU?$char_traits@D@std@@@std@@QEAA@XZ
	??1_Simple_reallocation_guard@?$vector@VStream@c10@@V?$allocator@VStream@c10@@@std@@@std@@QEAA@XZ
	??1_System_error@std@@UEAA@XZ
	??1bad_alloc@std@@UEAA@XZ
	??1bad_array_new_length@std@@UEAA@XZ
	??1bad_optional_access@std@@UEAA@XZ
	??1bad_weak_ptr@std@@UEAA@XZ
	??1error_category@std@@UEAA@XZ
	??1exception@std@@UEAA@XZ
	??1exception_ptr@std@@QEAA@XZ
	??1runtime_error@std@@UEAA@XZ
	??1sentry@?$basic_ostream@DU?$char_traits@D@std@@@std@@QEAA@XZ
	??1system_error@std@@UEAA@XZ
	??2@YAPEAX_KPEAX@Z
	??4?$_Vb_reference@U?$_Wrap_alloc@V?$allocator@I@std@@@std@@@std@@QEAAAEAV01@_N@Z
	??4?$atomic@_N@std@@QEAA_N_N@Z
	??4?$back_insert_iterator@V?$vector@UDevice@c10@@V?$allocator@UDevice@c10@@@std@@@std@@@std@@QEAAAEAV01@AEBUDevice@c10@@@Z
	??4?$function@$$A6A?AUIValue@c10@@XZ@std@@QEAAAEAV01@$$QEAV01@@Z
	??4?$vector@UDevice@c10@@V?$allocator@UDevice@c10@@@std@@@std@@QEAAAEAV01@$$QEAV01@@Z
	??4?$vector@UIValue@c10@@V?$allocator@UIValue@c10@@@std@@@std@@QEAAAEAV01@$$QEAV01@@Z
	??4?$vector@UIValue@c10@@V?$allocator@UIValue@c10@@@std@@@std@@QEAAAEAV01@AEBV01@@Z
	??4?$vector@UIValue@c10@@V?$allocator@UIValue@c10@@@std@@@std@@QEAAAEAV01@V?$initializer_list@UIValue@c10@@@1@@Z
	??4?$vector@V?$weak_intrusive_ptr@UStorageImpl@c10@@U?$intrusive_target_default_null_type@UStorageImpl@c10@@@detail@2@@c10@@V?$allocator@V?$weak_intrusive_ptr@UStorageImpl@c10@@U?$intrusive_target_default_null_type@UStorageImpl@c10@@@detail@2@@c10@@@std@@@std@@QEAAAEAV01@$$QEAV01@@Z
	??4Object@ivalue@c10@@QEAAAEAU012@$$QEAU012@@Z
	??4Object@ivalue@c10@@QEAAAEAU012@AEBU012@@Z
	??4exception_ptr@std@@QEAAAEAV01@AEBV01@@Z
	??8?$integer_iterator@_K$00$0A@@detail@c10@@QEBA_NAEBU012@@Z
	??8?$integer_iterator@_K$0A@$0A@@detail@c10@@QEBA_NAEBU012@@Z
	??8error_category@std@@QEBA_NAEBV01@@Z
	??8std@@YA_NAEBVerror_condition@0@0@Z
	??9?$integer_iterator@_K$00$0A@@detail@c10@@QEBA_NAEBU012@@Z
	??9?$integer_iterator@_K$0A@$0A@@detail@c10@@QEBA_NAEBU012@@Z
	??A?$ArrayRef@VStream@c10@@@c10@@QEBAAEBVStream@1@_K@Z
	??A?$array@U?$atomic@PEBUDeviceGuardImplInterface@impl@c10@@@std@@$0BF@@std@@QEAAAEAU?$atomic@PEBUDeviceGuardImplInterface@impl@c10@@@1@_K@Z
	??A?$vector@IV?$allocator@I@std@@@std@@QEAAAEAI_K@Z
	??A?$vector@PEAUTF_Tensor@@V?$allocator@PEAUTF_Tensor@@@std@@@std@@QEAAAEAPEAUTF_Tensor@@_K@Z
	??A?$vector@UDevice@c10@@V?$allocator@UDevice@c10@@@std@@@std@@QEAAAEAUDevice@c10@@_K@Z
	??A?$vector@UDevice@c10@@V?$allocator@UDevice@c10@@@std@@@std@@QEBAAEBUDevice@c10@@_K@Z
	??A?$vector@UIValue@c10@@V?$allocator@UIValue@c10@@@std@@@std@@QEAAAEAUIValue@c10@@_K@Z
	??A?$vector@UIValue@c10@@V?$allocator@UIValue@c10@@@std@@@std@@QEBAAEBUIValue@c10@@_K@Z
	??A?$vector@UTF_Output@@V?$allocator@UTF_Output@@@std@@@std@@QEAAAEAUTF_Output@@_K@Z
	??A?$vector@_JV?$allocator@_J@std@@@std@@QEAAAEA_J_K@Z
	??A?$vector@_NV?$allocator@_N@std@@@std@@QEAA?AV?$_Vb_reference@U?$_Wrap_alloc@V?$allocator@I@std@@@std@@@1@_K@Z
	??B?$_Vb_reference@U?$_Wrap_alloc@V?$allocator@I@std@@@std@@@std@@QEBA_NXZ
	??B?$atomic@I@std@@QEBAIXZ
	??B?$atomic@_N@std@@QEBA_NXZ
	??B?$fpos@U_Mbstatet@@@std@@QEBA_JXZ
	??B?$function@$$A6A?AUIValue@c10@@XZ@std@@QEBA_NXZ
	??B?$intrusive_ptr@UStorageImpl@c10@@U?$intrusive_target_default_null_type@UStorageImpl@c10@@@detail@2@@c10@@QEBA_NXZ
	??B?$optional@_N@std@@QEBA_NXZ
	??Bexception_ptr@std@@QEBA_NXZ
	??Bsentry@?$basic_ostream@DU?$char_traits@D@std@@@std@@QEBA_NXZ
	??C?$intrusive_ptr@UStorageImpl@c10@@U?$intrusive_target_default_null_type@UStorageImpl@c10@@@detail@2@@c10@@QEBAPEAUStorageImpl@1@XZ
	??C?$intrusive_ptr@UTensorImpl@c10@@U?$intrusive_target_default_null_type@UTensorImpl@c10@@@detail@2@@c10@@QEBAPEAUTensorImpl@1@XZ
	??C?$intrusive_ptr@UTensorImpl@c10@@UUndefinedTensorImpl@2@@c10@@QEBAPEAUTensorImpl@1@XZ
	??C?$optional@VTypeMeta@caffe2@@@std@@QEAAPEAVTypeMeta@caffe2@@XZ
	??C?$optional@VVirtualGuardImpl@impl@c10@@@std@@QEAAPEAVVirtualGuardImpl@impl@c10@@XZ
	??D?$_Optional_construct_base@V?$shared_ptr@UCompilationUnit@jit@torch@@@std@@@std@@QEGBAAEBV?$shared_ptr@UCompilationUnit@jit@torch@@@1@XZ
	??D?$_Optional_construct_base@V?$vector@V?$weak_intrusive_ptr@UStorageImpl@c10@@U?$intrusive_target_default_null_type@UStorageImpl@c10@@@detail@2@@c10@@V?$allocator@V?$weak_intrusive_ptr@UStorageImpl@c10@@U?$intrusive_target_default_null_type@UStorageImpl@c10@@@detail@2@@c10@@@std@@@std@@@std@@QEGAAAEAV?$vector@V?$weak_intrusive_ptr@UStorageImpl@c10@@U?$intrusive_target_default_null_type@UStorageImpl@c10@@@detail@2@@c10@@V?$allocator@V?$weak_intrusive_ptr@UStorageImpl@c10@@U?$intrusive_target_default_null_type@UStorageImpl@c10@@@detail@2@@c10@@@std@@@1@XZ
	??D?$_Optional_construct_base@V?$weak_ptr@UCompilationUnit@jit@torch@@@std@@@std@@QEGBAAEBV?$weak_ptr@UCompilationUnit@jit@torch@@@1@XZ
	??D?$_Optional_construct_base@_N@std@@QEGBAAEB_NXZ
	??D?$_Vb_iterator@U?$_Wrap_alloc@V?$allocator@I@std@@@std@@@std@@QEBA?AV?$_Vb_reference@U?$_Wrap_alloc@V?$allocator@I@std@@@std@@@1@XZ
	??D?$back_insert_iterator@V?$vector@UDevice@c10@@V?$allocator@UDevice@c10@@@std@@@std@@@std@@QEAAAEAV01@XZ
	??D?$integer_iterator@_K$00$0A@@detail@c10@@QEBA_KXZ
	??D?$integer_iterator@_K$0A@$0A@@detail@c10@@QEBA_KXZ
	??E?$back_insert_iterator@V?$vector@UDevice@c10@@V?$allocator@UDevice@c10@@@std@@@std@@@std@@QEAAAEAV01@XZ
	??E?$integer_iterator@_K$00$0A@@detail@c10@@QEAAAEAU012@XZ
	??E?$integer_iterator@_K$0A@$0A@@detail@c10@@QEAAAEAU012@XZ
	??H?$_Vector_iterator@V?$_Vector_val@U?$_Simple_types@I@std@@@std@@@std@@QEBA?AV01@_J@Z
	??H?$_Vector_iterator@V?$_Vector_val@U?$_Simple_types@UIValue@c10@@@std@@@std@@@std@@QEBA?AV01@_J@Z
	??R<lambda_1>@?1??append@?$basic_string@DU?$char_traits@D@std@@V?$allocator@D@2@@std@@QEAAAEAV23@QEBD_K@Z@QEBA@QEAD0101@Z
	??R<lambda_1>@?1??assign@?$basic_string@DU?$char_traits@D@std@@V?$allocator@D@2@@std@@QEAAAEAV23@QEBD_K@Z@QEBA@QEAD10@Z
	??R<lambda_1>@?1??ensureIsSubsetOfDevices@Future@ivalue@c10@@CAXAEBV?$vector@UDevice@c10@@V?$allocator@UDevice@c10@@@std@@@std@@0@Z@QEBA@AEBUDevice@4@1@Z
	??R<lambda_1>@?1??from_blob@torch@@YA?AVTensor@at@@PEAXV?$ArrayRef@_J@c10@@AEBUTensorOptions@6@@Z@QEBA@XZ
	??R<lambda_1>@?1??sortAndDeduplicateDevices@Future@ivalue@c10@@CA?AV?$vector@UDevice@c10@@V?$allocator@UDevice@c10@@@std@@@std@@AEBVVirtualGuardImpl@impl@4@V56@@Z@QEBA@AEBUDevice@4@2@Z
	??R<lambda_1>@?1??wait@Future@ivalue@c10@@QEAAXXZ@QEBA_NXZ
	??R?$_Func_class@UIValue@c10@@$$V@std@@QEBA?AUIValue@c10@@XZ
	??R?$_Func_class@XAEAUFuture@ivalue@c10@@@std@@QEBAXAEAUFuture@ivalue@c10@@@Z
	??R?$default_delete@UAutogradMeta@autograd@torch@@@std@@QEBAXPEAUAutogradMeta@autograd@torch@@@Z
	??R?$default_delete@UAutogradMetaInterface@c10@@@std@@QEBAXPEAUAutogradMetaInterface@c10@@@Z
	??R?$multiplies@_K@std@@QEBA_KAEB_K0@Z
	??Y?$_Vector_const_iterator@V?$_Vector_val@U?$_Simple_types@I@std@@@std@@@std@@QEAAAEAV01@_J@Z
	??Y?$_Vector_const_iterator@V?$_Vector_val@U?$_Simple_types@UIValue@c10@@@std@@@std@@@std@@QEAAAEAV01@_J@Z
	??Y?$_Vector_iterator@V?$_Vector_val@U?$_Simple_types@I@std@@@std@@@std@@QEAAAEAV01@_J@Z
	??Y?$_Vector_iterator@V?$_Vector_val@U?$_Simple_types@UIValue@c10@@@std@@@std@@@std@@QEAAAEAV01@_J@Z
	??Y?$basic_string@DU?$char_traits@D@std@@V?$allocator@D@2@@std@@QEAAAEAV01@AEBV01@@Z
	??_7?$_Ref_count@UAwaitType@c10@@@std@@6B@
	??_7?$basic_ostringstream@DU?$char_traits@D@std@@V?$allocator@D@2@@std@@6B@
	??_7?$basic_stringbuf@DU?$char_traits@D@std@@V?$allocator@D@2@@std@@6B@
	??_7Await@ivalue@c10@@6B@
	??_7Future@ivalue@c10@@6B@
	??_7Object@ivalue@c10@@6B@
	??_7RRefInterface@c10@@6B@
	??_7VirtualGuardImpl@impl@c10@@6B@
	??_7_Generic_error_category@std@@6B@
	??_7_System_error@std@@6B@
	??_7bad_alloc@std@@6B@
	??_7bad_array_new_length@std@@6B@
	??_7bad_optional_access@std@@6B@
	??_7bad_weak_ptr@std@@6B@
	??_7exception@std@@6B@
	??_7runtime_error@std@@6B@
	??_7system_error@std@@6B@
	??_D?$basic_ostringstream@DU?$char_traits@D@std@@V?$allocator@D@2@@std@@QEAAXXZ
	??_H@YAXPEAX_K1P6APEAX0@Z@Z
	?_Activate_SSO_buffer@?$_String_val@U?$_Simple_types@D@std@@@std@@QEAAXXZ
	?_Adjust_manually_vector_aligned@std@@YAXAEAPEAXAEA_K@Z
	?_Adopt@_Iterator_base0@std@@QEAAXPEBX@Z
	?_Advance@?$_Vb_iter_base@U?$_Wrap_alloc@V?$allocator@I@std@@@std@@@std@@QEAAX_K@Z
	?_Alloc_proxy@_Container_base0@std@@QEAAXAEBU_Fake_allocator@2@@Z
	?_Allocate@_Default_allocate_traits@std@@SAPEAX_K@Z
	?_Buy_nonzero@?$vector@IV?$allocator@I@std@@@std@@AEAAX_K@Z
	?_Buy_nonzero@?$vector@PEAUTF_Tensor@@V?$allocator@PEAUTF_Tensor@@@std@@@std@@AEAAX_K@Z
	?_Buy_nonzero@?$vector@UDevice@c10@@V?$allocator@UDevice@c10@@@std@@@std@@AEAAX_K@Z
	?_Buy_nonzero@?$vector@UIValue@c10@@V?$allocator@UIValue@c10@@@std@@@std@@AEAAX_K@Z
	?_Buy_nonzero@?$vector@UTF_Output@@V?$allocator@UTF_Output@@@std@@@std@@AEAAX_K@Z
	?_Buy_nonzero@?$vector@_JV?$allocator@_J@std@@@std@@AEAAX_K@Z
	?_Buy_raw@?$vector@IV?$allocator@I@std@@@std@@AEAAX_K@Z
	?_Buy_raw@?$vector@PEAUTF_Tensor@@V?$allocator@PEAUTF_Tensor@@@std@@@std@@AEAAX_K@Z
	?_Buy_raw@?$vector@UDevice@c10@@V?$allocator@UDevice@c10@@@std@@@std@@AEAAX_K@Z
	?_Buy_raw@?$vector@UIValue@c10@@V?$allocator@UIValue@c10@@@std@@@std@@AEAAX_K@Z
	?_Buy_raw@?$vector@UTF_Output@@V?$allocator@UTF_Output@@@std@@@std@@AEAAX_K@Z
	?_Buy_raw@?$vector@_JV?$allocator@_J@std@@@std@@AEAAX_K@Z
	?_Calculate_growth@?$basic_string@DU?$char_traits@D@std@@V?$allocator@D@2@@std@@AEBA_K_K@Z
	?_Calculate_growth@?$basic_string@DU?$char_traits@D@std@@V?$allocator@D@2@@std@@CA_K_K00@Z
	?_Calculate_growth@?$vector@UDevice@c10@@V?$allocator@UDevice@c10@@@std@@@std@@AEBA_K_K@Z
	?_Calculate_growth@?$vector@UEvent@c10@@V?$allocator@UEvent@c10@@@std@@@std@@AEBA_K_K@Z
	?_Calculate_growth@?$vector@UIValue@c10@@V?$allocator@UIValue@c10@@@std@@@std@@AEBA_K_K@Z
	?_Calculate_growth@?$vector@VStream@c10@@V?$allocator@VStream@c10@@@std@@@std@@AEBA_K_K@Z
	?_Change_array@?$vector@UDevice@c10@@V?$allocator@UDevice@c10@@@std@@@std@@AEAAXQEAUDevice@c10@@_K1@Z
	?_Change_array@?$vector@UEvent@c10@@V?$allocator@UEvent@c10@@@std@@@std@@AEAAXQEAUEvent@c10@@_K1@Z
	?_Change_array@?$vector@UIValue@c10@@V?$allocator@UIValue@c10@@@std@@@std@@AEAAXQEAUIValue@c10@@_K1@Z
	?_Change_array@?$vector@VStream@c10@@V?$allocator@VStream@c10@@@std@@@std@@AEAAXQEAVStream@c10@@_K1@Z
	?_Check_load_memory_order@std@@YAXW4memory_order@1@@Z
	?_Check_store_memory_order@std@@YAXW4memory_order@1@@Z
	?_Clear_and_reserve_geometric@?$vector@UIValue@c10@@V?$allocator@UIValue@c10@@@std@@@std@@AEAAX_K@Z
	?_Construct_empty@?$basic_string@DU?$char_traits@D@std@@V?$allocator@D@2@@std@@AEAAXXZ
	?_Deallocate_for_capacity@?$basic_string@DU?$char_traits@D@std@@V?$allocator@D@2@@std@@CAXAEAV?$allocator@D@2@QEAD_K@Z
	?_Decref@?$_Ptr_base@UAwaitType@c10@@@std@@IEAAXXZ
	?_Decref@?$_Ptr_base@UCompilationUnit@jit@torch@@@std@@IEAAXXZ
	?_Decref@?$_Ptr_base@UNode@autograd@torch@@@std@@IEAAXXZ
	?_Decref@?$_Ptr_base@UType@c10@@@std@@IEAAXXZ
	?_Decref@_Ref_count_base@std@@QEAAXXZ
	?_Decwref@?$_Ptr_base@UCompilationUnit@jit@torch@@@std@@IEAAXXZ
	?_Decwref@?$_Ptr_base@USharedType@c10@@@std@@IEAAXXZ
	?_Decwref@_Ref_count_base@std@@QEAAXXZ
	?_Delete_this@?$_Ref_count@UAwaitType@c10@@@std@@EEAAXXZ
	?_Destroy@?$_Ref_count@UAwaitType@c10@@@std@@EEAAXXZ
	?_Empty@?$_Func_class@UIValue@c10@@$$V@std@@IEBA_NXZ
	?_Empty@?$_Func_class@VTensor@at@@$$V@std@@IEBA_NXZ
	?_Empty@?$_Func_class@XAEAUFuture@ivalue@c10@@@std@@IEBA_NXZ
	?_Get_buffer_view@?$basic_stringbuf@DU?$char_traits@D@std@@V?$allocator@D@2@@std@@QEBA?AU_Buffer_view@12@XZ
	?_Get_deleter@_Ref_count_base@std@@UEBAPEAXAEBVtype_info@@@Z
	?_Get_first@?$_Compressed_pair@U?$default_delete@UAutogradMeta@autograd@torch@@@std@@PEAUAutogradMeta@autograd@torch@@$00@std@@QEAAAEAU?$default_delete@UAutogradMeta@autograd@torch@@@2@XZ
	?_Get_first@?$_Compressed_pair@U?$default_delete@UAutogradMetaInterface@c10@@@std@@PEAUAutogradMetaInterface@c10@@$00@std@@QEAAAEAU?$default_delete@UAutogradMetaInterface@c10@@@2@XZ
	?_Get_first@?$_Compressed_pair@V?$allocator@D@std@@V?$_String_val@U?$_Simple_types@D@std@@@2@$00@std@@QEAAAEAV?$allocator@D@2@XZ
	?_Get_first@?$_Compressed_pair@V?$allocator@D@std@@V?$_String_val@U?$_Simple_types@D@std@@@2@$00@std@@QEBAAEBV?$allocator@D@2@XZ
	?_Get_first@?$_Compressed_pair@V?$allocator@I@std@@V?$_Vector_val@U?$_Simple_types@I@std@@@2@$00@std@@QEAAAEAV?$allocator@I@2@XZ
	?_Get_first@?$_Compressed_pair@V?$allocator@I@std@@V?$_Vector_val@U?$_Simple_types@I@std@@@2@$00@std@@QEBAAEBV?$allocator@I@2@XZ
	?_Get_first@?$_Compressed_pair@V?$allocator@PEAUTF_Tensor@@@std@@V?$_Vector_val@U?$_Simple_types@PEAUTF_Tensor@@@std@@@2@$00@std@@QEAAAEAV?$allocator@PEAUTF_Tensor@@@2@XZ
	?_Get_first@?$_Compressed_pair@V?$allocator@PEAUTF_Tensor@@@std@@V?$_Vector_val@U?$_Simple_types@PEAUTF_Tensor@@@std@@@2@$00@std@@QEBAAEBV?$allocator@PEAUTF_Tensor@@@2@XZ
	?_Get_first@?$_Compressed_pair@V?$allocator@UDevice@c10@@@std@@V?$_Vector_val@U?$_Simple_types@UDevice@c10@@@std@@@2@$00@std@@QEAAAEAV?$allocator@UDevice@c10@@@2@XZ
	?_Get_first@?$_Compressed_pair@V?$allocator@UDevice@c10@@@std@@V?$_Vector_val@U?$_Simple_types@UDevice@c10@@@std@@@2@$00@std@@QEBAAEBV?$allocator@UDevice@c10@@@2@XZ
	?_Get_first@?$_Compressed_pair@V?$allocator@UEvent@c10@@@std@@V?$_Vector_val@U?$_Simple_types@UEvent@c10@@@std@@@2@$00@std@@QEAAAEAV?$allocator@UEvent@c10@@@2@XZ
	?_Get_first@?$_Compressed_pair@V?$allocator@UEvent@c10@@@std@@V?$_Vector_val@U?$_Simple_types@UEvent@c10@@@std@@@2@$00@std@@QEBAAEBV?$allocator@UEvent@c10@@@2@XZ
	?_Get_first@?$_Compressed_pair@V?$allocator@UFutureCallback@Future@ivalue@c10@@@std@@V?$_Vector_val@U?$_Simple_types@UFutureCallback@Future@ivalue@c10@@@std@@@2@$00@std@@QEAAAEAV?$allocator@UFutureCallback@Future@ivalue@c10@@@2@XZ
	?_Get_first@?$_Compressed_pair@V?$allocator@UIValue@c10@@@std@@V?$_Vector_val@U?$_Simple_types@UIValue@c10@@@std@@@2@$00@std@@QEAAAEAV?$allocator@UIValue@c10@@@2@XZ
	?_Get_first@?$_Compressed_pair@V?$allocator@UIValue@c10@@@std@@V?$_Vector_val@U?$_Simple_types@UIValue@c10@@@std@@@2@$00@std@@QEBAAEBV?$allocator@UIValue@c10@@@2@XZ
	?_Get_first@?$_Compressed_pair@V?$allocator@UTF_Output@@@std@@V?$_Vector_val@U?$_Simple_types@UTF_Output@@@std@@@2@$00@std@@QEAAAEAV?$allocator@UTF_Output@@@2@XZ
	?_Get_first@?$_Compressed_pair@V?$allocator@UTF_Output@@@std@@V?$_Vector_val@U?$_Simple_types@UTF_Output@@@std@@@2@$00@std@@QEBAAEBV?$allocator@UTF_Output@@@2@XZ
	?_Get_first@?$_Compressed_pair@V?$allocator@V?$weak_intrusive_ptr@UStorageImpl@c10@@U?$intrusive_target_default_null_type@UStorageImpl@c10@@@detail@2@@c10@@@std@@V?$_Vector_val@U?$_Simple_types@V?$weak_intrusive_ptr@UStorageImpl@c10@@U?$intrusive_target_default_null_type@UStorageImpl@c10@@@detail@2@@c10@@@std@@@2@$00@std@@QEAAAEAV?$allocator@V?$weak_intrusive_ptr@UStorageImpl@c10@@U?$intrusive_target_default_null_type@UStorageImpl@c10@@@detail@2@@c10@@@2@XZ
	?_Get_first@?$_Compressed_pair@V?$allocator@VStream@c10@@@std@@V?$_Vector_val@U?$_Simple_types@VStream@c10@@@std@@@2@$00@std@@QEAAAEAV?$allocator@VStream@c10@@@2@XZ
	?_Get_first@?$_Compressed_pair@V?$allocator@VStream@c10@@@std@@V?$_Vector_val@U?$_Simple_types@VStream@c10@@@std@@@2@$00@std@@QEBAAEBV?$allocator@VStream@c10@@@2@XZ
	?_Get_first@?$_Compressed_pair@V?$allocator@VTensor@at@@@std@@V?$_Vector_val@U?$_Simple_types@VTensor@at@@@std@@@2@$00@std@@QEAAAEAV?$allocator@VTensor@at@@@2@XZ
	?_Get_first@?$_Compressed_pair@V?$allocator@_J@std@@V?$_Vector_val@U?$_Simple_types@_J@std@@@2@$00@std@@QEAAAEAV?$allocator@_J@2@XZ
	?_Get_first@?$_Compressed_pair@V?$allocator@_J@std@@V?$_Vector_val@U?$_Simple_types@_J@std@@@2@$00@std@@QEBAAEBV?$allocator@_J@2@XZ
	?_Getal@?$basic_string@DU?$char_traits@D@std@@V?$allocator@D@2@@std@@AEAAAEAV?$allocator@D@2@XZ
	?_Getal@?$basic_string@DU?$char_traits@D@std@@V?$allocator@D@2@@std@@AEBAAEBV?$allocator@D@2@XZ
	?_Getal@?$vector@IV?$allocator@I@std@@@std@@AEAAAEAV?$allocator@I@2@XZ
	?_Getal@?$vector@IV?$allocator@I@std@@@std@@AEBAAEBV?$allocator@I@2@XZ
	?_Getal@?$vector@PEAUTF_Tensor@@V?$allocator@PEAUTF_Tensor@@@std@@@std@@AEAAAEAV?$allocator@PEAUTF_Tensor@@@2@XZ
	?_Getal@?$vector@PEAUTF_Tensor@@V?$allocator@PEAUTF_Tensor@@@std@@@std@@AEBAAEBV?$allocator@PEAUTF_Tensor@@@2@XZ
	?_Getal@?$vector@UDevice@c10@@V?$allocator@UDevice@c10@@@std@@@std@@AEAAAEAV?$allocator@UDevice@c10@@@2@XZ
	?_Getal@?$vector@UDevice@c10@@V?$allocator@UDevice@c10@@@std@@@std@@AEBAAEBV?$allocator@UDevice@c10@@@2@XZ
	?_Getal@?$vector@UEvent@c10@@V?$allocator@UEvent@c10@@@std@@@std@@AEAAAEAV?$allocator@UEvent@c10@@@2@XZ
	?_Getal@?$vector@UEvent@c10@@V?$allocator@UEvent@c10@@@std@@@std@@AEBAAEBV?$allocator@UEvent@c10@@@2@XZ
	?_Getal@?$vector@UFutureCallback@Future@ivalue@c10@@V?$allocator@UFutureCallback@Future@ivalue@c10@@@std@@@std@@AEAAAEAV?$allocator@UFutureCallback@Future@ivalue@c10@@@2@XZ
	?_Getal@?$vector@UIValue@c10@@V?$allocator@UIValue@c10@@@std@@@std@@AEAAAEAV?$allocator@UIValue@c10@@@2@XZ
	?_Getal@?$vector@UIValue@c10@@V?$allocator@UIValue@c10@@@std@@@std@@AEBAAEBV?$allocator@UIValue@c10@@@2@XZ
	?_Getal@?$vector@UTF_Output@@V?$allocator@UTF_Output@@@std@@@std@@AEAAAEAV?$allocator@UTF_Output@@@2@XZ
	?_Getal@?$vector@UTF_Output@@V?$allocator@UTF_Output@@@std@@@std@@AEBAAEBV?$allocator@UTF_Output@@@2@XZ
	?_Getal@?$vector@V?$weak_intrusive_ptr@UStorageImpl@c10@@U?$intrusive_target_default_null_type@UStorageImpl@c10@@@detail@2@@c10@@V?$allocator@V?$weak_intrusive_ptr@UStorageImpl@c10@@U?$intrusive_target_default_null_type@UStorageImpl@c10@@@detail@2@@c10@@@std@@@std@@AEAAAEAV?$allocator@V?$weak_intrusive_ptr@UStorageImpl@c10@@U?$intrusive_target_default_null_type@UStorageImpl@c10@@@detail@2@@c10@@@2@XZ
	?_Getal@?$vector@VStream@c10@@V?$allocator@VStream@c10@@@std@@@std@@AEAAAEAV?$allocator@VStream@c10@@@2@XZ
	?_Getal@?$vector@VStream@c10@@V?$allocator@VStream@c10@@@std@@@std@@AEBAAEBV?$allocator@VStream@c10@@@2@XZ
	?_Getal@?$vector@VTensor@at@@V?$allocator@VTensor@at@@@std@@@std@@AEAAAEAV?$allocator@VTensor@at@@@2@XZ
	?_Getal@?$vector@_JV?$allocator@_J@std@@@std@@AEAAAEAV?$allocator@_J@2@XZ
	?_Getal@?$vector@_JV?$allocator@_J@std@@@std@@AEBAAEBV?$allocator@_J@2@XZ
	?_Getcont@_Iterator_base0@std@@QEBAPEBU_Container_base0@2@XZ
	?_Getimpl@?$_Func_class@UIValue@c10@@$$V@std@@AEBAPEAV?$_Func_base@UIValue@c10@@$$V@2@XZ
	?_Getimpl@?$_Func_class@VTensor@at@@$$V@std@@AEBAPEAV?$_Func_base@VTensor@at@@$$V@2@XZ
	?_Getimpl@?$_Func_class@XAEAUFuture@ivalue@c10@@@std@@AEBAPEAV?$_Func_base@XAEAUFuture@ivalue@c10@@@2@XZ
	?_Getptr@?$_Vb_reference@U?$_Wrap_alloc@V?$allocator@I@std@@@std@@@std@@QEBAPEBIXZ
	?_Getstate@?$basic_stringbuf@DU?$char_traits@D@std@@V?$allocator@D@2@@std@@CAHH@Z
	?_Incref@?$_Ptr_base@UAwaitType@c10@@@std@@IEBAXXZ
	?_Incref@?$_Ptr_base@UCompilationUnit@jit@torch@@@std@@IEBAXXZ
	?_Incref@?$_Ptr_base@UType@c10@@@std@@IEBAXXZ
	?_Incref@_Ref_count_base@std@@QEAAXXZ
	?_Incref_nz@_Ref_count_base@std@@QEAA_NXZ
	?_Incwref@_Ref_count_base@std@@QEAAXXZ
	?_Large_mode_engaged@?$_String_val@U?$_Simple_types@D@std@@@std@@QEBA_NXZ
	?_Local@?$_Func_class@UIValue@c10@@$$V@std@@AEBA_NXZ
	?_Local@?$_Func_class@VTensor@at@@$$V@std@@AEBA_NXZ
	?_Local@?$_Func_class@XAEAUFuture@ivalue@c10@@@std@@AEBA_NXZ
	?_Maklocwcs@std@@YAPEA_WPEB_W@Z
	?_Mask@?$_Vb_reference@U?$_Wrap_alloc@V?$allocator@I@std@@@std@@@std@@IEBAIXZ
	?_Mycnd@condition_variable@std@@AEAAPEAU_Cnd_internal_imp_t@@XZ
	?_Mymtx@_Mutex_base@std@@AEAAPEAU_Mtx_internal_imp_t@@XZ
	?_Myptr@?$_String_val@U?$_Simple_types@D@std@@@std@@QEAAPEADXZ
	?_Myptr@?$_String_val@U?$_Simple_types@D@std@@@std@@QEBAPEBDXZ
	?_Negate@?$_Atomic_integral_facade@I@std@@SAII@Z
	?_Nw@?$_Vb_val@V?$allocator@_N@std@@@std@@SA_K_K@Z
	?_Orphan_all@_Container_base0@std@@QEAAXXZ
	?_Orphan_range@?$vector@IV?$allocator@I@std@@@std@@AEBAXPEAI0@Z
	?_Orphan_range@?$vector@UDevice@c10@@V?$allocator@UDevice@c10@@@std@@@std@@AEBAXPEAUDevice@c10@@0@Z
	?_Orphan_range@?$vector@UEvent@c10@@V?$allocator@UEvent@c10@@@std@@@std@@AEBAXPEAUEvent@c10@@0@Z
	?_Orphan_range@?$vector@UIValue@c10@@V?$allocator@UIValue@c10@@@std@@@std@@AEBAXPEAUIValue@c10@@0@Z
	?_Orphan_range@?$vector@VStream@c10@@V?$allocator@VStream@c10@@@std@@@std@@AEBAXPEAVStream@c10@@0@Z
	?_Release@?$_Uninitialized_backout_al@V?$allocator@I@std@@@std@@QEAAPEAIXZ
	?_Release@?$_Uninitialized_backout_al@V?$allocator@PEAUTF_Tensor@@@std@@@std@@QEAAPEAPEAUTF_Tensor@@XZ
	?_Release@?$_Uninitialized_backout_al@V?$allocator@UDevice@c10@@@std@@@std@@QEAAPEAUDevice@c10@@XZ
	?_Release@?$_Uninitialized_backout_al@V?$allocator@UEvent@c10@@@std@@@std@@QEAAPEAUEvent@c10@@XZ
	?_Release@?$_Uninitialized_backout_al@V?$allocator@UIValue@c10@@@std@@@std@@QEAAPEAUIValue@c10@@XZ
	?_Release@?$_Uninitialized_backout_al@V?$allocator@UTF_Output@@@std@@@std@@QEAAPEAUTF_Output@@XZ
	?_Release@?$_Uninitialized_backout_al@V?$allocator@VStream@c10@@@std@@@std@@QEAAPEAVStream@c10@@XZ
	?_Release@?$_Uninitialized_backout_al@V?$allocator@_J@std@@@std@@QEAAPEA_JXZ
	?_Release@_Fake_proxy_ptr_impl@std@@QEAAXXZ
	?_Reset_move@?$_Func_class@UIValue@c10@@$$V@std@@IEAAX$$QEAV12@@Z
	?_Set@?$_Func_class@UIValue@c10@@$$V@std@@AEAAXPEAV?$_Func_base@UIValue@c10@@$$V@2@@Z
	?_Set@?$_Func_class@VTensor@at@@$$V@std@@AEAAXPEAV?$_Func_base@VTensor@at@@$$V@2@@Z
	?_Set@?$_Func_class@XAEAUFuture@ivalue@c10@@@std@@AEAAXPEAV?$_Func_base@XAEAUFuture@ivalue@c10@@@2@@Z
	?_Swap@?$_Ptr_base@USharedType@c10@@@std@@IEAAXAEAV12@@Z
	?_Swap_proxy_and_iterators@?$basic_string@DU?$char_traits@D@std@@V?$allocator@D@2@@std@@AEAAXAEAV12@@Z
	?_Swap_proxy_and_iterators@_Container_base0@std@@QEAAXAEAU12@@Z
	?_Swap_val@?$_Vector_val@U?$_Simple_types@UFutureCallback@Future@ivalue@c10@@@std@@@std@@QEAAXAEAV12@@Z
	?_Switch_to_buf@_Bxty@?$_String_val@U?$_Simple_types@D@std@@@std@@QEAAXXZ
	?_Take_contents@?$_Vector_val@U?$_Simple_types@UDevice@c10@@@std@@@std@@QEAAXAEAV12@@Z
	?_Take_contents@?$_Vector_val@U?$_Simple_types@UIValue@c10@@@std@@@std@@QEAAXAEAV12@@Z
	?_Take_contents@?$_Vector_val@U?$_Simple_types@V?$weak_intrusive_ptr@UStorageImpl@c10@@U?$intrusive_target_default_null_type@UStorageImpl@c10@@@detail@2@@c10@@@std@@@std@@QEAAXAEAV12@@Z
	?_Take_contents@?$basic_string@DU?$char_traits@D@std@@V?$allocator@D@2@@std@@AEAAXAEAV12@@Z
	?_Throw_bad_array_new_length@std@@YAXXZ
	?_Throw_bad_optional_access@std@@YAXXZ
	?_Throw_bad_weak_ptr@std@@YAXXZ
	?_Throw_system_error@std@@YAXW4errc@1@@Z
	?_Tidy@?$_Func_class@UIValue@c10@@$$V@std@@IEAAXXZ
	?_Tidy@?$_Func_class@VTensor@at@@$$V@std@@IEAAXXZ
	?_Tidy@?$_Func_class@XAEAUFuture@ivalue@c10@@@std@@IEAAXXZ
	?_Tidy@?$basic_stringbuf@DU?$char_traits@D@std@@V?$allocator@D@2@@std@@IEAAXXZ
	?_Tidy@?$vector@IV?$allocator@I@std@@@std@@AEAAXXZ
	?_Tidy@?$vector@PEAUTF_Tensor@@V?$allocator@PEAUTF_Tensor@@@std@@@std@@AEAAXXZ
	?_Tidy@?$vector@UDevice@c10@@V?$allocator@UDevice@c10@@@std@@@std@@AEAAXXZ
	?_Tidy@?$vector@UEvent@c10@@V?$allocator@UEvent@c10@@@std@@@std@@AEAAXXZ
	?_Tidy@?$vector@UFutureCallback@Future@ivalue@c10@@V?$allocator@UFutureCallback@Future@ivalue@c10@@@std@@@std@@AEAAXXZ
	?_Tidy@?$vector@UIValue@c10@@V?$allocator@UIValue@c10@@@std@@@std@@AEAAXXZ
	?_Tidy@?$vector@UTF_Output@@V?$allocator@UTF_Output@@@std@@@std@@AEAAXXZ
	?_Tidy@?$vector@V?$weak_intrusive_ptr@UStorageImpl@c10@@U?$intrusive_target_default_null_type@UStorageImpl@c10@@@detail@2@@c10@@V?$allocator@V?$weak_intrusive_ptr@UStorageImpl@c10@@U?$intrusive_target_default_null_type@UStorageImpl@c10@@@detail@2@@c10@@@std@@@std@@AEAAXXZ
	?_Tidy@?$vector@VStream@c10@@V?$allocator@VStream@c10@@@std@@@std@@AEAAXXZ
	?_Tidy@?$vector@VTensor@at@@V?$allocator@VTensor@at@@@std@@@std@@AEAAXXZ
	?_Tidy@?$vector@_JV?$allocator@_J@std@@@std@@AEAAXXZ
	?_Tidy_deallocate@?$basic_string@DU?$char_traits@D@std@@V?$allocator@D@2@@std@@AEAAXXZ
	?_Trim@?$vector@_NV?$allocator@_N@std@@@std@@QEAAX_K@Z
	?_Unchecked_begin@?$vector@UDevice@c10@@V?$allocator@UDevice@c10@@@std@@@std@@QEAAPEAUDevice@c10@@XZ
	?_Unchecked_begin@?$vector@UDevice@c10@@V?$allocator@UDevice@c10@@@std@@@std@@QEBAPEBUDevice@c10@@XZ
	?_Unchecked_begin@?$vector@UEvent@c10@@V?$allocator@UEvent@c10@@@std@@@std@@QEAAPEAUEvent@c10@@XZ
	?_Unchecked_begin@?$vector@UFutureCallback@Future@ivalue@c10@@V?$allocator@UFutureCallback@Future@ivalue@c10@@@std@@@std@@QEAAPEAUFutureCallback@Future@ivalue@c10@@XZ
	?_Unchecked_begin@?$vector@V?$weak_intrusive_ptr@UStorageImpl@c10@@U?$intrusive_target_default_null_type@UStorageImpl@c10@@@detail@2@@c10@@V?$allocator@V?$weak_intrusive_ptr@UStorageImpl@c10@@U?$intrusive_target_default_null_type@UStorageImpl@c10@@@detail@2@@c10@@@std@@@std@@QEAAPEAV?$weak_intrusive_ptr@UStorageImpl@c10@@U?$intrusive_target_default_null_type@UStorageImpl@c10@@@detail@2@@c10@@XZ
	?_Unchecked_begin@?$vector@V?$weak_intrusive_ptr@UStorageImpl@c10@@U?$intrusive_target_default_null_type@UStorageImpl@c10@@@detail@2@@c10@@V?$allocator@V?$weak_intrusive_ptr@UStorageImpl@c10@@U?$intrusive_target_default_null_type@UStorageImpl@c10@@@detail@2@@c10@@@std@@@std@@QEBAPEBV?$weak_intrusive_ptr@UStorageImpl@c10@@U?$intrusive_target_default_null_type@UStorageImpl@c10@@@detail@2@@c10@@XZ
	?_Unchecked_begin@?$vector@VStream@c10@@V?$allocator@VStream@c10@@@std@@@std@@QEAAPEAVStream@c10@@XZ
	?_Unchecked_begin@?$vector@VTensor@at@@V?$allocator@VTensor@at@@@std@@@std@@QEAAPEAVTensor@at@@XZ
	?_Unchecked_end@?$vector@UDevice@c10@@V?$allocator@UDevice@c10@@@std@@@std@@QEAAPEAUDevice@c10@@XZ
	?_Unchecked_end@?$vector@UDevice@c10@@V?$allocator@UDevice@c10@@@std@@@std@@QEBAPEBUDevice@c10@@XZ
	?_Unchecked_end@?$vector@UEvent@c10@@V?$allocator@UEvent@c10@@@std@@@std@@QEAAPEAUEvent@c10@@XZ
	?_Unchecked_end@?$vector@UFutureCallback@Future@ivalue@c10@@V?$allocator@UFutureCallback@Future@ivalue@c10@@@std@@@std@@QEAAPEAUFutureCallback@Future@ivalue@c10@@XZ
	?_Unchecked_end@?$vector@V?$weak_intrusive_ptr@UStorageImpl@c10@@U?$intrusive_target_default_null_type@UStorageImpl@c10@@@detail@2@@c10@@V?$allocator@V?$weak_intrusive_ptr@UStorageImpl@c10@@U?$intrusive_target_default_null_type@UStorageImpl@c10@@@detail@2@@c10@@@std@@@std@@QEAAPEAV?$weak_intrusive_ptr@UStorageImpl@c10@@U?$intrusive_target_default_null_type@UStorageImpl@c10@@@detail@2@@c10@@XZ
	?_Unchecked_end@?$vector@V?$weak_intrusive_ptr@UStorageImpl@c10@@U?$intrusive_target_default_null_type@UStorageImpl@c10@@@detail@2@@c10@@V?$allocator@V?$weak_intrusive_ptr@UStorageImpl@c10@@U?$intrusive_target_default_null_type@UStorageImpl@c10@@@detail@2@@c10@@@std@@@std@@QEBAPEBV?$weak_intrusive_ptr@UStorageImpl@c10@@U?$intrusive_target_default_null_type@UStorageImpl@c10@@@detail@2@@c10@@XZ
	?_Unchecked_end@?$vector@VStream@c10@@V?$allocator@VStream@c10@@@std@@@std@@QEAAPEAVStream@c10@@XZ
	?_Unchecked_end@?$vector@VTensor@at@@V?$allocator@VTensor@at@@@std@@@std@@QEAAPEAVTensor@at@@XZ
	?_Unwrapped@?$_Vector_const_iterator@V?$_Vector_val@U?$_Simple_types@UDevice@c10@@@std@@@std@@@std@@QEBAPEBUDevice@c10@@XZ
	?_Unwrapped@?$_Vector_iterator@V?$_Vector_val@U?$_Simple_types@UDevice@c10@@@std@@@std@@@std@@QEBAPEAUDevice@c10@@XZ
	?_Use_count@_Ref_count_base@std@@QEBAJXZ
	?_Verify_offset@?$_Vector_const_iterator@V?$_Vector_val@U?$_Simple_types@I@std@@@std@@@std@@QEBAX_J@Z
	?_Verify_offset@?$_Vector_const_iterator@V?$_Vector_val@U?$_Simple_types@UIValue@c10@@@std@@@std@@@std@@QEBAX_J@Z
	?_Verify_ownership_levels@_Mutex_base@std@@IEAA_NXZ
	?_Xlen@?$vector@_NV?$allocator@_N@std@@@std@@SAXXZ
	?_Xlen_string@std@@YAXXZ
	?_Xlength@?$vector@IV?$allocator@I@std@@@std@@CAXXZ
	?_Xlength@?$vector@PEAUTF_Tensor@@V?$allocator@PEAUTF_Tensor@@@std@@@std@@CAXXZ
	?_Xlength@?$vector@UDevice@c10@@V?$allocator@UDevice@c10@@@std@@@std@@CAXXZ
	?_Xlength@?$vector@UEvent@c10@@V?$allocator@UEvent@c10@@@std@@@std@@CAXXZ
	?_Xlength@?$vector@UIValue@c10@@V?$allocator@UIValue@c10@@@std@@@std@@CAXXZ
	?_Xlength@?$vector@UTF_Output@@V?$allocator@UTF_Output@@@std@@@std@@CAXXZ
	?_Xlength@?$vector@VStream@c10@@V?$allocator@VStream@c10@@@std@@@std@@CAXXZ
	?_Xlength@?$vector@_JV?$allocator@_J@std@@@std@@CAXXZ
	?abs@at@@YA?AVTensor@1@AEBV21@@Z
	?allocate@?$allocator@D@std@@QEAAPEAD_K@Z
	?allocate@?$allocator@I@std@@QEAAPEAI_K@Z
	?allocate@?$allocator@PEAUTF_Tensor@@@std@@QEAAPEAPEAUTF_Tensor@@_K@Z
	?allocate@?$allocator@UDevice@c10@@@std@@QEAAPEAUDevice@c10@@_K@Z
	?allocate@?$allocator@UEvent@c10@@@std@@QEAAPEAUEvent@c10@@_K@Z
	?allocate@?$allocator@UIValue@c10@@@std@@QEAAPEAUIValue@c10@@_K@Z
	?allocate@?$allocator@UTF_Output@@@std@@QEAAPEAUTF_Output@@_K@Z
	?allocate@?$allocator@VStream@c10@@@std@@QEAAPEAVStream@c10@@_K@Z
	?allocate@?$allocator@_J@std@@QEAAPEA_J_K@Z
	?append@?$basic_string@DU?$char_traits@D@std@@V?$allocator@D@2@@std@@QEAAAEAV12@AEBV12@@Z
	?append@?$basic_string@DU?$char_traits@D@std@@V?$allocator@D@2@@std@@QEAAAEAV12@QEBD_K@Z
	?args@Await@ivalue@c10@@QEAAAEAV?$vector@UIValue@c10@@V?$allocator@UIValue@c10@@@std@@@std@@XZ
	?assign@?$_Narrow_char_traits@DH@std@@SAXAEADAEBD@Z
	?assign@?$basic_string@DU?$char_traits@D@std@@V?$allocator@D@2@@std@@QEAAAEAV12@QEBD_K@Z
	?atomic_refcount_decrement@detail@c10@@YAIAEAU?$atomic@I@std@@@Z
	?atomic_weakcount_decrement@detail@c10@@YAIAEAU?$atomic@I@std@@@Z
	?back@?$vector@UEvent@c10@@V?$allocator@UEvent@c10@@@std@@@std@@QEAAAEAUEvent@c10@@XZ
	?begin@?$ArrayRef@VStream@c10@@@c10@@QEBAPEBVStream@2@XZ
	?begin@?$ArrayRef@_J@c10@@QEBAPEB_JXZ
	?begin@?$initializer_list@UIValue@c10@@@std@@QEBAPEBUIValue@c10@@XZ
	?begin@?$initializer_list@_J@std@@QEBAPEB_JXZ
	?begin@?$integer_range@_K$00$00@c10@@QEBA?AU?$integer_iterator@_K$00$0A@@detail@2@XZ
	?begin@?$integer_range@_K$0A@$00@c10@@QEBA?AU?$integer_iterator@_K$0A@$0A@@detail@2@XZ
	?begin@?$vector@IV?$allocator@I@std@@@std@@QEAA?AV?$_Vector_iterator@V?$_Vector_val@U?$_Simple_types@I@std@@@std@@@2@XZ
	?begin@?$vector@UDevice@c10@@V?$allocator@UDevice@c10@@@std@@@std@@QEAA?AV?$_Vector_iterator@V?$_Vector_val@U?$_Simple_types@UDevice@c10@@@std@@@std@@@2@XZ
	?begin@?$vector@UDevice@c10@@V?$allocator@UDevice@c10@@@std@@@std@@QEBA?AV?$_Vector_const_iterator@V?$_Vector_val@U?$_Simple_types@UDevice@c10@@@std@@@std@@@2@XZ
	?begin@?$vector@UIValue@c10@@V?$allocator@UIValue@c10@@@std@@@std@@QEAA?AV?$_Vector_iterator@V?$_Vector_val@U?$_Simple_types@UIValue@c10@@@std@@@std@@@2@XZ
	?begin@?$vector@_NV?$allocator@_N@std@@@std@@QEAA?AV?$_Vb_iterator@U?$_Wrap_alloc@V?$allocator@I@std@@@std@@@2@XZ
	?block@?$InlineEvent@VVirtualGuardImpl@impl@c10@@@impl@c10@@QEBAXAEBVStream@3@@Z
	?block@Event@c10@@QEBAXAEBVStream@2@@Z
	?block@VirtualGuardImpl@impl@c10@@UEBAXPEAXAEBVStream@3@@Z
	?c_str@?$basic_string@DU?$char_traits@D@std@@V?$allocator@D@2@@std@@QEBAPEBDXZ
	?call@?$_str_wrapper@$$V@detail@c10@@SA?AUCompileTimeEmptyString@23@XZ
	?call@?$_str_wrapper@PEBD@detail@c10@@SAPEBDPEBD@Z
	?call@?$_str_wrapper@PEBDAEBJ@detail@c10@@SA?AV?$basic_string@DU?$char_traits@D@std@@V?$allocator@D@2@@std@@AEBQEBDAEBJ@Z
	?call@?$_str_wrapper@PEBDAEBUDevice@c10@@@detail@c10@@SA?AV?$basic_string@DU?$char_traits@D@std@@V?$allocator@D@2@@std@@AEBQEBDAEBUDevice@3@@Z
	?call@?$_str_wrapper@PEBDAEBUDevice@c10@@PEBDAEBU12@@detail@c10@@SA?AV?$basic_string@DU?$char_traits@D@std@@V?$allocator@D@2@@std@@AEBQEBDAEBUDevice@3@01@Z
	?call@?$_str_wrapper@PEBDAEBUDevice@c10@@PEBDAEB_KPEBDAEBU12@@detail@c10@@SA?AV?$basic_string@DU?$char_traits@D@std@@V?$allocator@D@2@@std@@AEBQEBDAEBUDevice@3@0AEB_K01@Z
	?call@?$_str_wrapper@PEBDAEBV?$basic_string@DU?$char_traits@D@std@@V?$allocator@D@2@@std@@@detail@c10@@SA?AV?$basic_string@DU?$char_traits@D@std@@V?$allocator@D@2@@std@@AEBQEBDAEBV45@@Z
	?call@?$_str_wrapper@PEBDAEBV?$basic_string@DU?$char_traits@D@std@@V?$allocator@D@2@@std@@PEBDAEBV12@@detail@c10@@SA?AV?$basic_string@DU?$char_traits@D@std@@V?$allocator@D@2@@std@@AEBQEBDAEBV45@01@Z
	?call@?$_str_wrapper@PEBDAEBV?$basic_string@DU?$char_traits@D@std@@V?$allocator@D@2@@std@@PEBDAEBV12@PEBD@detail@c10@@SA?AV?$basic_string@DU?$char_traits@D@std@@V?$allocator@D@2@@std@@AEBQEBDAEBV45@010@Z
	?call@?$_str_wrapper@PEBDAEBW4DeviceType@c10@@PEBD@detail@c10@@SA?AV?$basic_string@DU?$char_traits@D@std@@V?$allocator@D@2@@std@@AEBQEBDAEBW4DeviceType@3@0@Z
	?call@?$_str_wrapper@PEBDAEBW4DeviceType@c10@@PEBDAEBUDevice@2@@detail@c10@@SA?AV?$basic_string@DU?$char_traits@D@std@@V?$allocator@D@2@@std@@AEBQEBDAEBW4DeviceType@3@0AEBUDevice@3@@Z
	?call@?$_str_wrapper@PEBDPEBDAEBV?$basic_string@DU?$char_traits@D@std@@V?$allocator@D@2@@std@@@detail@c10@@SA?AV?$basic_string@DU?$char_traits@D@std@@V?$allocator@D@2@@std@@AEBQEBD0AEBV45@@Z
	?capacity@?$vector@UDevice@c10@@V?$allocator@UDevice@c10@@@std@@@std@@QEBA_KXZ
	?capacity@?$vector@UEvent@c10@@V?$allocator@UEvent@c10@@@std@@@std@@QEBA_KXZ
	?capacity@?$vector@UIValue@c10@@V?$allocator@UIValue@c10@@@std@@@std@@QEBA_KXZ
	?capacity@?$vector@VStream@c10@@V?$allocator@VStream@c10@@@std@@@std@@QEBA_KXZ
	?category@error_code@std@@QEBAAEBVerror_category@2@XZ
	?category@error_condition@std@@QEBAAEBVerror_category@2@XZ
	?check_tensor_options_and_extract_memory_format@impl@c10@@YA?AV?$optional@W4MemoryFormat@c10@@@std@@AEBUTensorOptions@2@V34@@Z
	?compare_exchange_strong@?$_Atomic_storage@I$03@std@@QEAA_NAEAIIW4memory_order@2@@Z
	?compare_exchange_weak@?$atomic@I@std@@QEAA_NAEAII@Z
	?compilation_unit@Object@ivalue@c10@@QEAA?AV?$shared_ptr@UCompilationUnit@jit@torch@@@std@@XZ
	?completed@Await@ivalue@c10@@QEAA_NXZ
	?completed@Future@ivalue@c10@@QEBA_NXZ
	?constValue@Future@ivalue@c10@@QEBAAEBUIValue@3@XZ
	?copy@?$_Char_traits@DH@std@@SAPEADQEADQEBD_K@Z
	?cos@at@@YA?AVTensor@1@AEBV21@@Z
	?create@Object@ivalue@c10@@SA?AV?$intrusive_ptr@UObject@ivalue@c10@@U?$intrusive_target_default_null_type@UObject@ivalue@c10@@@detail@3@@3@UStrongTypePtr@3@_K@Z
	?create@Object@ivalue@c10@@SA?AV?$intrusive_ptr@UObject@ivalue@c10@@U?$intrusive_target_default_null_type@UObject@ivalue@c10@@@detail@3@@3@UWeakOrStrongTypePtr@3@_K@Z
	?createInstance@Future@ivalue@c10@@QEAA?AV?$intrusive_ptr@UFuture@ivalue@c10@@U?$intrusive_target_default_null_type@UFuture@ivalue@c10@@@detail@3@@3@V?$SingletonOrSharedTypePtr@UType@c10@@@Type@3@@Z
	?cross_entropy_loss@at@@YA?AVTensor@1@AEBV21@0AEBV?$optional@VTensor@at@@@std@@_J2N@Z
	?current_exception@std@@YA?AVexception_ptr@1@XZ
	?data@?$ArrayRef@_J@c10@@QEBAPEB_JXZ
	?data@?$basic_string@DU?$char_traits@D@std@@V?$allocator@D@2@@std@@QEBAPEBDXZ
	?data@?$vector@IV?$allocator@I@std@@@std@@QEAAPEAIXZ
	?data@?$vector@PEAUTF_Tensor@@V?$allocator@PEAUTF_Tensor@@@std@@@std@@QEAAPEAPEAUTF_Tensor@@XZ
	?data@?$vector@UTF_Output@@V?$allocator@UTF_Output@@@std@@@std@@QEAAPEAUTF_Output@@XZ
	?data@?$vector@VStream@c10@@V?$allocator@VStream@c10@@@std@@@std@@QEBAPEBVStream@c10@@XZ
	?data@?$vector@_JV?$allocator@_J@std@@@std@@QEAAPEA_JXZ
	?deallocate@?$allocator@D@std@@QEAAXQEAD_K@Z
	?deallocate@?$allocator@I@std@@QEAAXQEAI_K@Z
	?deallocate@?$allocator@PEAUTF_Tensor@@@std@@QEAAXQEAPEAUTF_Tensor@@_K@Z
	?deallocate@?$allocator@UDevice@c10@@@std@@QEAAXQEAUDevice@c10@@_K@Z
	?deallocate@?$allocator@UEvent@c10@@@std@@QEAAXQEAUEvent@c10@@_K@Z
	?deallocate@?$allocator@UFutureCallback@Future@ivalue@c10@@@std@@QEAAXQEAUFutureCallback@Future@ivalue@c10@@_K@Z
	?deallocate@?$allocator@UIValue@c10@@@std@@QEAAXQEAUIValue@c10@@_K@Z
	?deallocate@?$allocator@UTF_Output@@@std@@QEAAXQEAUTF_Output@@_K@Z
	?deallocate@?$allocator@V?$weak_intrusive_ptr@UStorageImpl@c10@@U?$intrusive_target_default_null_type@UStorageImpl@c10@@@detail@2@@c10@@@std@@QEAAXQEAV?$weak_intrusive_ptr@UStorageImpl@c10@@U?$intrusive_target_default_null_type@UStorageImpl@c10@@@detail@2@@c10@@_K@Z
	?deallocate@?$allocator@VStream@c10@@@std@@QEAAXQEAVStream@c10@@_K@Z
	?deallocate@?$allocator@VTensor@at@@@std@@QEAAXQEAVTensor@at@@_K@Z
	?deallocate@?$allocator@_J@std@@QEAAXQEA_J_K@Z
	?debugCheckNullptrInvariant@?$ArrayRef@VSymInt@c10@@@c10@@AEAAXXZ
	?default_error_condition@error_category@std@@UEBA?AVerror_condition@2@H@Z
	?deprecated_AT_ASSERT@detail@c10@@YAXXZ
	?destroy@Repr@?$SingletonOrSharedTypePtr@UType@c10@@@Type@c10@@AEAAXXZ
	?destroyEvent@VirtualGuardImpl@impl@c10@@UEBAXPEAXC@Z
	?device@Event@c10@@QEBA?AUDevice@2@XZ
	?deviceCount@VirtualGuardImpl@impl@c10@@UEBACXZ
	?device_index@?$InlineEvent@VVirtualGuardImpl@impl@c10@@@impl@c10@@QEBACXZ
	?device_index@Event@c10@@QEBACXZ
	?device_type@?$InlineEvent@VVirtualGuardImpl@impl@c10@@@impl@c10@@QEBA?AW4DeviceType@3@XZ
	?device_type@Event@c10@@QEBA?AW4DeviceType@2@XZ
	?devices@Future@ivalue@c10@@QEBAAEBV?$vector@UDevice@c10@@V?$allocator@UDevice@c10@@@std@@@std@@XZ
	?elapsedTime@VirtualGuardImpl@impl@c10@@UEBANPEAX0C@Z
	?elementType@Await@ivalue@c10@@QEBAAEBV?$SingletonOrSharedTypePtr@UType@c10@@@Type@3@XZ
	?elementType@Future@ivalue@c10@@QEBAAEBV?$SingletonOrSharedTypePtr@UType@c10@@@Type@3@XZ
	?empty@?$ArrayRef@VStream@c10@@@c10@@QEBA_NXZ
	?empty@?$vector@UDevice@c10@@V?$allocator@UDevice@c10@@@std@@@std@@QEBA_NXZ
	?empty@?$vector@UEvent@c10@@V?$allocator@UEvent@c10@@@std@@@std@@QEBA_NXZ
	?end@?$ArrayRef@VStream@c10@@@c10@@QEBAPEBVStream@2@XZ
	?end@?$ArrayRef@_J@c10@@QEBAPEB_JXZ
	?end@?$initializer_list@_J@std@@QEBAPEB_JXZ
	?end@?$integer_range@_K$00$00@c10@@QEBA?AU?$integer_iterator@_K$00$0A@@detail@2@XZ
	?end@?$integer_range@_K$0A@$00@c10@@QEBA?AU?$integer_iterator@_K$0A@$0A@@detail@2@XZ
	?end@?$vector@IV?$allocator@I@std@@@std@@QEAA?AV?$_Vector_iterator@V?$_Vector_val@U?$_Simple_types@I@std@@@std@@@2@XZ
	?end@?$vector@UDevice@c10@@V?$allocator@UDevice@c10@@@std@@@std@@QEAA?AV?$_Vector_iterator@V?$_Vector_val@U?$_Simple_types@UDevice@c10@@@std@@@std@@@2@XZ
	?end@?$vector@UDevice@c10@@V?$allocator@UDevice@c10@@@std@@@std@@QEBA?AV?$_Vector_const_iterator@V?$_Vector_val@U?$_Simple_types@UDevice@c10@@@std@@@std@@@2@XZ
	?ensureIsSubsetOfDevices@Future@ivalue@c10@@CAXAEBV?$vector@UDevice@c10@@V?$allocator@UDevice@c10@@@std@@@std@@0@Z
	?eof@?$_Narrow_char_traits@DH@std@@SAHXZ
	?eq@?$_Narrow_char_traits@DH@std@@SA_NDD@Z
	?eq_int_type@?$_Narrow_char_traits@DH@std@@SA_NHH@Z
	?equivalent@error_category@std@@UEBA_NAEBVerror_code@2@H@Z
	?equivalent@error_category@std@@UEBA_NHAEBVerror_condition@2@@Z
	?erase@?$vector@IV?$allocator@I@std@@@std@@QEAA?AV?$_Vector_iterator@V?$_Vector_val@U?$_Simple_types@I@std@@@std@@@2@V?$_Vector_const_iterator@V?$_Vector_val@U?$_Simple_types@I@std@@@std@@@2@0@Z
	?erase@?$vector@UIValue@c10@@V?$allocator@UIValue@c10@@@std@@@std@@QEAA?AV?$_Vector_iterator@V?$_Vector_val@U?$_Simple_types@UIValue@c10@@@std@@@std@@@2@V?$_Vector_const_iterator@V?$_Vector_val@U?$_Simple_types@UIValue@c10@@@std@@@std@@@2@@Z
	?exception_ptr@Future@ivalue@c10@@QEBA?AV0std@@XZ
	?exchangeDevice@VirtualGuardImpl@impl@c10@@UEBA?AUDevice@3@U43@@Z
	?exchangeStream@VirtualGuardImpl@impl@c10@@UEBA?AVStream@3@V43@@Z
	?exp@at@@YA?AVTensor@1@AEBV21@@Z
	?expired@?$weak_intrusive_ptr@UStorageImpl@c10@@U?$intrusive_target_default_null_type@UStorageImpl@c10@@@detail@2@@c10@@QEBA_NXZ
	?expired@?$weak_ptr@USharedType@c10@@@std@@QEBA_NXZ
	?eye@at@@YA?AVTensor@1@_JUTensorOptions@c10@@@Z
	?eye@torch@@YA?AVTensor@at@@_JUTensorOptions@c10@@@Z
	?fetch_add@?$_Atomic_integral@I$03@std@@QEAAIIW4memory_order@2@@Z
	?fetch_sub@?$_Atomic_integral_facade@I@std@@QEAAIIW4memory_order@2@@Z
	?for_blob@at@@YA?AVTensorMaker@1@PEAXV?$ArrayRef@_J@c10@@@Z
	?formatSetOfDevices@Future@ivalue@c10@@CA?AV?$basic_string@DU?$char_traits@D@std@@V?$allocator@D@2@@std@@AEBV?$vector@UDevice@c10@@V?$allocator@UDevice@c10@@@std@@@5@@Z
	?fromIntArrayRefSlow@c10@@YA?AV?$ArrayRef@VSymInt@c10@@@1@V?$ArrayRef@_J@1@@Z
	?from_blob@at@@YA?AVTensor@1@PEAXV?$ArrayRef@_J@c10@@AEBUTensorOptions@4@@Z
	?from_blob@torch@@YA?AVTensor@at@@PEAXV?$ArrayRef@_J@c10@@AEBUTensorOptions@5@@Z
	?generic_category@std@@YAAEBVerror_category@1@XZ
	?get@?$intrusive_ptr@UTensorImpl@c10@@U?$intrusive_target_default_null_type@UTensorImpl@c10@@@detail@2@@c10@@QEBAPEAUTensorImpl@2@XZ
	?get@?$intrusive_ptr@UTensorImpl@c10@@UUndefinedTensorImpl@2@@c10@@QEBAPEAUTensorImpl@2@XZ
	?getDefaultStream@VirtualGuardImpl@impl@c10@@UEBA?AVStream@3@UDevice@3@@Z
	?getDevice@VirtualGuardImpl@impl@c10@@UEBA?AUDevice@3@XZ
	?getDeviceGuardImpl@impl@c10@@YAPEBUDeviceGuardImplInterface@12@W4DeviceType@2@@Z
	?getDeviceTypeOfStreams@?$InlineMultiStreamGuard@VVirtualGuardImpl@impl@c10@@@impl@c10@@CA?AW4DeviceType@3@V?$ArrayRef@VStream@c10@@@3@@Z
	?getDevicesOfStorages@Future@ivalue@c10@@CA?AV?$vector@UDevice@c10@@V?$allocator@UDevice@c10@@@std@@@std@@AEBVVirtualGuardImpl@impl@3@AEBV?$vector@V?$weak_intrusive_ptr@UStorageImpl@c10@@U?$intrusive_target_default_null_type@UStorageImpl@c10@@@detail@2@@c10@@V?$allocator@V?$weak_intrusive_ptr@UStorageImpl@c10@@U?$intrusive_target_default_null_type@UStorageImpl@c10@@@detail@2@@c10@@@std@@@5@@Z
	?getNewStream@VirtualGuardImpl@impl@c10@@UEBA?AVStream@3@UDevice@3@H@Z
	?getSlot@Object@ivalue@c10@@QEBAAEBUIValue@3@_K@Z
	?getStream@VirtualGuardImpl@impl@c10@@UEBA?AVStream@3@UDevice@3@@Z
	?getStreamFromGlobalPool@VirtualGuardImpl@impl@c10@@UEBA?AVStream@3@UDevice@3@_N@Z
	?getStrongRefOrThrow@WeakOrStrongCompilationUnit@c10@@QEBA?AV?$shared_ptr@UCompilationUnit@jit@torch@@@std@@XZ
	?getTypeOfDevices@Future@ivalue@c10@@CA?AW4DeviceType@3@AEBV?$vector@UDevice@c10@@V?$allocator@UDevice@c10@@@std@@@std@@@Z
	?getWeakRefOrThrow@WeakOrStrongCompilationUnit@c10@@QEBA?AV?$weak_ptr@UCompilationUnit@jit@torch@@@std@@XZ
	?get_deleter@?$unique_ptr@UAutogradMeta@autograd@torch@@U?$default_delete@UAutogradMeta@autograd@torch@@@std@@@std@@QEAAAEAU?$default_delete@UAutogradMeta@autograd@torch@@@2@XZ
	?hasError@Future@ivalue@c10@@QEBA_NXZ
	?hasValue@Future@ivalue@c10@@QEBA_NXZ
	?has_value@?$optional@UDevice@c10@@@std@@QEBA_NXZ
	?has_value@?$optional@V?$shared_ptr@UCompilationUnit@jit@torch@@@std@@@std@@QEBA_NXZ
	?has_value@?$optional@V?$vector@V?$weak_intrusive_ptr@UStorageImpl@c10@@U?$intrusive_target_default_null_type@UStorageImpl@c10@@@detail@2@@c10@@V?$allocator@V?$weak_intrusive_ptr@UStorageImpl@c10@@U?$intrusive_target_default_null_type@UStorageImpl@c10@@@detail@2@@c10@@@std@@@std@@@std@@QEBA_NXZ
	?has_value@?$optional@V?$weak_ptr@UCompilationUnit@jit@torch@@@std@@@std@@QEBA_NXZ
	?has_value@?$optional@VTypeMeta@caffe2@@@std@@QEBA_NXZ
	?has_value@?$optional@VVirtualGuardImpl@impl@c10@@@std@@QEBA_NXZ
	?has_value@?$optional@W4MemoryFormat@c10@@@std@@QEBA_NXZ
	?isSharedAndNonNull@Repr@?$SingletonOrSharedTypePtr@UType@c10@@@Type@c10@@QEBA_NXZ
	?is_empty_strong_compilation_ref@Object@ivalue@c10@@QEBA_NXZ
	?is_weak_compilation_ref@Object@ivalue@c10@@QEBA_NXZ
	?length@?$_Narrow_char_traits@DH@std@@SA_KQEBD@Z
	?load@?$_Atomic_storage@I$03@std@@QEBAIW4memory_order@2@@Z
	?load@?$_Atomic_storage@PEBUDeviceGuardImplInterface@impl@c10@@$07@std@@QEBAPEBUDeviceGuardImplInterface@impl@c10@@W4memory_order@2@@Z
	?load@?$_Atomic_storage@_N$00@std@@QEBA_NW4memory_order@2@@Z
	?lock@?$weak_intrusive_ptr@UStorageImpl@c10@@U?$intrusive_target_default_null_type@UStorageImpl@c10@@@detail@2@@c10@@QEBA?AV?$intrusive_ptr@UStorageImpl@c10@@U?$intrusive_target_default_null_type@UStorageImpl@c10@@@detail@2@@2@XZ
	?lock@_Mutex_base@std@@QEAAXXZ
	?log@at@@YA?AVTensor@1@AEBV21@@Z
	?make_error_code@std@@YA?AVerror_code@1@W4errc@1@@Z
	?make_variable@autograd@torch@@YA?AVTensor@at@@V34@_N1@Z
	?markCompleted@Await@ivalue@c10@@QEAAXUIValue@3@@Z
	?markCompleted@Future@ivalue@c10@@QEAAXUIValue@3@V?$optional@V?$vector@V?$weak_intrusive_ptr@UStorageImpl@c10@@U?$intrusive_target_default_null_type@UStorageImpl@c10@@@detail@2@@c10@@V?$allocator@V?$weak_intrusive_ptr@UStorageImpl@c10@@U?$intrusive_target_default_null_type@UStorageImpl@c10@@@detail@2@@c10@@@std@@@std@@@std@@@Z
	?markCompleted@Future@ivalue@c10@@QEAAXXZ
	?max_size@?$_Default_allocator_traits@V?$allocator@D@std@@@std@@SA_KAEBV?$allocator@D@2@@Z
	?max_size@?$_Default_allocator_traits@V?$allocator@I@std@@@std@@SA_KAEBV?$allocator@I@2@@Z
	?max_size@?$_Default_allocator_traits@V?$allocator@PEAUTF_Tensor@@@std@@@std@@SA_KAEBV?$allocator@PEAUTF_Tensor@@@2@@Z
	?max_size@?$_Default_allocator_traits@V?$allocator@UDevice@c10@@@std@@@std@@SA_KAEBV?$allocator@UDevice@c10@@@2@@Z
	?max_size@?$_Default_allocator_traits@V?$allocator@UEvent@c10@@@std@@@std@@SA_KAEBV?$allocator@UEvent@c10@@@2@@Z
	?max_size@?$_Default_allocator_traits@V?$allocator@UIValue@c10@@@std@@@std@@SA_KAEBV?$allocator@UIValue@c10@@@2@@Z
	?max_size@?$_Default_allocator_traits@V?$allocator@UTF_Output@@@std@@@std@@SA_KAEBV?$allocator@UTF_Output@@@2@@Z
	?max_size@?$_Default_allocator_traits@V?$allocator@VStream@c10@@@std@@@std@@SA_KAEBV?$allocator@VStream@c10@@@2@@Z
	?max_size@?$_Default_allocator_traits@V?$allocator@_J@std@@@std@@SA_KAEBV?$allocator@_J@2@@Z
	?max_size@?$basic_string@DU?$char_traits@D@std@@V?$allocator@D@2@@std@@QEBA_KXZ
	?max_size@?$vector@IV?$allocator@I@std@@@std@@QEBA_KXZ
	?max_size@?$vector@PEAUTF_Tensor@@V?$allocator@PEAUTF_Tensor@@@std@@@std@@QEBA_KXZ
	?max_size@?$vector@UDevice@c10@@V?$allocator@UDevice@c10@@@std@@@std@@QEBA_KXZ
	?max_size@?$vector@UEvent@c10@@V?$allocator@UEvent@c10@@@std@@@std@@QEBA_KXZ
	?max_size@?$vector@UIValue@c10@@V?$allocator@UIValue@c10@@@std@@@std@@QEBA_KXZ
	?max_size@?$vector@UTF_Output@@V?$allocator@UTF_Output@@@std@@@std@@QEBA_KXZ
	?max_size@?$vector@VStream@c10@@V?$allocator@VStream@c10@@@std@@@std@@QEBA_KXZ
	?max_size@?$vector@_JV?$allocator@_J@std@@@std@@QEBA_KXZ
	?max_size@?$vector@_NV?$allocator@_N@std@@@std@@QEBA_KXZ
	?message@_Generic_error_category@std@@UEBA?AV?$basic_string@DU?$char_traits@D@std@@V?$allocator@D@2@@2@H@Z
	?message@error_code@std@@QEBA?AV?$basic_string@DU?$char_traits@D@std@@V?$allocator@D@2@@2@XZ
	?move@?$_Char_traits@DH@std@@SAPEADQEADQEBD_K@Z
	?mse_loss@at@@YA?AVTensor@1@AEBV21@0_J@Z
	?mutex@?$unique_lock@Vmutex@std@@@std@@QEBAPEAV02@XZ
	?name@_Generic_error_category@std@@UEBAPEBDXZ
	?not_eof@?$_Narrow_char_traits@DH@std@@SAHH@Z
	?notify_all@condition_variable@std@@QEAAXXZ
	?ones@at@@YA?AVTensor@1@V?$ArrayRef@_J@c10@@UTensorOptions@4@@Z
	?ones@torch@@YA?AVTensor@at@@V?$ArrayRef@_J@c10@@UTensorOptions@5@@Z
	?ones_like@at@@YA?AVTensor@1@AEBV21@UTensorOptions@c10@@V?$optional@W4MemoryFormat@c10@@@std@@@Z
	?ones_like@torch@@YA?AVTensor@at@@AEBV23@UTensorOptions@c10@@V?$optional@W4MemoryFormat@c10@@@std@@@Z
	?optTypeMetaToScalarType@c10@@YA?AV?$optional@W4ScalarType@c10@@@std@@V?$optional@VTypeMeta@caffe2@@@3@@Z
	?overflow@?$basic_stringbuf@DU?$char_traits@D@std@@V?$allocator@D@2@@std@@MEAAHH@Z
	?pbackfail@?$basic_stringbuf@DU?$char_traits@D@std@@V?$allocator@D@2@@std@@MEAAHH@Z
	?pointer_to@?$pointer_traits@PEAD@std@@SAPEADAEAD@Z
	?pop_back@?$vector@UEvent@c10@@V?$allocator@UEvent@c10@@@std@@@std@@QEAAXXZ
	?pow@at@@YA?AVTensor@1@AEBV21@AEBVScalar@c10@@@Z
	?push_back@?$vector@UDevice@c10@@V?$allocator@UDevice@c10@@@std@@@std@@QEAAXAEBUDevice@c10@@@Z
	?push_back@?$vector@UEvent@c10@@V?$allocator@UEvent@c10@@@std@@@std@@QEAAX$$QEAUEvent@c10@@@Z
	?push_back@?$vector@VStream@c10@@V?$allocator@VStream@c10@@@std@@@std@@QEAAX$$QEAVStream@c10@@@Z
	?queryEvent@VirtualGuardImpl@impl@c10@@UEBA_NPEAX@Z
	?queryStream@VirtualGuardImpl@impl@c10@@UEBA_NAEBVStream@3@@Z
	?rand@at@@YA?AVTensor@1@V?$ArrayRef@_J@c10@@UTensorOptions@4@@Z
	?rand@torch@@YA?AVTensor@at@@V?$ArrayRef@_J@c10@@UTensorOptions@5@@Z
	?randn@at@@YA?AVTensor@1@V?$ArrayRef@_J@c10@@UTensorOptions@4@@Z
	?randn@torch@@YA?AVTensor@at@@V?$ArrayRef@_J@c10@@UTensorOptions@5@@Z
	?rawRepr@Repr@?$SingletonOrSharedTypePtr@UType@c10@@@Type@c10@@QEBA?AURawRepr@1234@XZ
	?record@?$InlineEvent@VVirtualGuardImpl@impl@c10@@@impl@c10@@QEAAXAEBVStream@3@@Z
	?record@Event@c10@@QEAAXAEBVStream@2@@Z
	?record@VirtualGuardImpl@impl@c10@@UEBAXPEAPEAXAEBVStream@3@CW4EventFlag@3@@Z
	?recordDataPtrOnStream@VirtualGuardImpl@impl@c10@@UEBAXAEBVDataPtr@3@AEBVStream@3@@Z
	?release@?$unique_ptr@UAutogradMeta@autograd@torch@@U?$default_delete@UAutogradMeta@autograd@torch@@@std@@@std@@QEAAPEAUAutogradMeta@autograd@torch@@XZ
	?relu@at@@YA?AVTensor@1@AEBV21@@Z
	?reserve@?$vector@VStream@c10@@V?$allocator@VStream@c10@@@std@@@std@@QEAAX_K@Z
	?reset@?$_Optional_destruct_base@V?$InlineDeviceGuard@VVirtualGuardImpl@impl@c10@@@impl@c10@@$0A@@std@@QEAAXXZ
	?reset@?$_Optional_destruct_base@VVirtualGuardImpl@impl@c10@@$0A@@std@@QEAAXXZ
	?reset_@?$intrusive_ptr@UFuture@ivalue@c10@@U?$intrusive_target_default_null_type@UFuture@ivalue@c10@@@detail@3@@c10@@AEAAXXZ
	?reset_@?$intrusive_ptr@UObject@ivalue@c10@@U?$intrusive_target_default_null_type@UObject@ivalue@c10@@@detail@3@@c10@@AEAAXXZ
	?reset_@?$intrusive_ptr@UStorageImpl@c10@@U?$intrusive_target_default_null_type@UStorageImpl@c10@@@detail@2@@c10@@AEAAXXZ
	?reset_@?$intrusive_ptr@UTensorImpl@c10@@U?$intrusive_target_default_null_type@UTensorImpl@c10@@@detail@2@@c10@@AEAAXXZ
	?reset_@?$intrusive_ptr@UTensorImpl@c10@@UUndefinedTensorImpl@2@@c10@@AEAAXXZ
	?reset_@?$weak_intrusive_ptr@UStorageImpl@c10@@U?$intrusive_target_default_null_type@UStorageImpl@c10@@@detail@2@@c10@@AEAAXXZ
	?resize@?$vector@UDevice@c10@@V?$allocator@UDevice@c10@@@std@@@std@@QEAAX_KAEBUDevice@c10@@@Z
	?resize@?$vector@UIValue@c10@@V?$allocator@UIValue@c10@@@std@@@std@@QEAAX_K@Z
	?rethrow_exception@std@@YAXVexception_ptr@1@@Z
	?seekoff@?$basic_stringbuf@DU?$char_traits@D@std@@V?$allocator@D@2@@std@@MEAA?AV?$fpos@U_Mbstatet@@@2@_JHH@Z
	?seekpos@?$basic_stringbuf@DU?$char_traits@D@std@@V?$allocator@D@2@@std@@MEAA?AV?$fpos@U_Mbstatet@@@2@V32@H@Z
	?select_on_container_copy_construction@?$_Default_allocator_traits@V?$allocator@UDevice@c10@@@std@@@std@@SA?AV?$allocator@UDevice@c10@@@2@AEBV32@@Z
	?select_on_container_copy_construction@?$_Default_allocator_traits@V?$allocator@UIValue@c10@@@std@@@std@@SA?AV?$allocator@UIValue@c10@@@2@AEBV32@@Z
	?setArgs@Await@ivalue@c10@@QEAAXV?$vector@UIValue@c10@@V?$allocator@UIValue@c10@@@std@@@std@@@Z
	?setDevice@VirtualGuardImpl@impl@c10@@UEBAXUDevice@3@@Z
	?setError@Future@ivalue@c10@@QEAAXVexception_ptr@std@@@Z
	?setErrorIfNeeded@Future@ivalue@c10@@QEAAXVexception_ptr@std@@@Z
	?setErrorInternal@Future@ivalue@c10@@AEAAXVexception_ptr@std@@AEAV?$unique_lock@Vmutex@std@@@5@@Z
	?setFn@Await@ivalue@c10@@QEAAXV?$function@$$A6A?AUIValue@c10@@XZ@std@@@Z
	?setSlot@Object@ivalue@c10@@QEAAX_KUIValue@3@@Z
	?sigmoid@at@@YA?AVTensor@1@AEBV21@@Z
	?sin@at@@YA?AVTensor@1@AEBV21@@Z
	?singleton@?$intrusive_target_default_null_type@UFuture@ivalue@c10@@@detail@c10@@SAPEAUFuture@ivalue@3@XZ
	?singleton@?$intrusive_target_default_null_type@UObject@ivalue@c10@@@detail@c10@@SAPEAUObject@ivalue@3@XZ
	?singleton@?$intrusive_target_default_null_type@UStorageImpl@c10@@@detail@c10@@SAPEAUStorageImpl@3@XZ
	?singleton@?$intrusive_target_default_null_type@UTensorImpl@c10@@@detail@c10@@SAPEAUTensorImpl@3@XZ
	?size@?$ArrayRef@VStream@c10@@@c10@@QEBA_KXZ
	?size@?$ArrayRef@_J@c10@@QEBA_KXZ
	?size@?$basic_string@DU?$char_traits@D@std@@V?$allocator@D@2@@std@@QEBA_KXZ
	?size@?$initializer_list@UIValue@c10@@@std@@QEBA_KXZ
	?size@?$initializer_list@_J@std@@QEBA_KXZ
	?size@?$vector@IV?$allocator@I@std@@@std@@QEBA_KXZ
	?size@?$vector@UDevice@c10@@V?$allocator@UDevice@c10@@@std@@@std@@QEBA_KXZ
	?size@?$vector@UIValue@c10@@V?$allocator@UIValue@c10@@@std@@@std@@QEBA_KXZ
	?size@?$vector@VStream@c10@@V?$allocator@VStream@c10@@@std@@@std@@QEBA_KXZ
	?slots@Object@ivalue@c10@@QEBAAEBV?$vector@UIValue@c10@@V?$allocator@UIValue@c10@@@std@@@std@@XZ
	?sortAndDeduplicateDevices@Future@ivalue@c10@@CA?AV?$vector@UDevice@c10@@V?$allocator@UDevice@c10@@@std@@@std@@AEBVVirtualGuardImpl@impl@3@V45@@Z
	?sqrt@at@@YA?AVTensor@1@AEBV21@@Z
	?storages@Future@ivalue@c10@@QEBAAEBV?$vector@V?$weak_intrusive_ptr@UStorageImpl@c10@@U?$intrusive_target_default_null_type@UStorageImpl@c10@@@detail@2@@c10@@V?$allocator@V?$weak_intrusive_ptr@UStorageImpl@c10@@U?$intrusive_target_default_null_type@UStorageImpl@c10@@@detail@2@@c10@@@std@@@std@@XZ
	?store@?$_Atomic_storage@I$03@std@@QEAAXI@Z
	?store@?$_Atomic_storage@I$03@std@@QEAAXIW4memory_order@2@@Z
	?store@?$_Atomic_storage@_N$00@std@@QEAAX_N@Z
	?str@?$basic_ostringstream@DU?$char_traits@D@std@@V?$allocator@D@2@@std@@QEBA?AV?$basic_string@DU?$char_traits@D@std@@V?$allocator@D@2@@2@XZ
	?str@?$basic_stringbuf@DU?$char_traits@D@std@@V?$allocator@D@2@@std@@QEBA?AV?$basic_string@DU?$char_traits@D@std@@V?$allocator@D@2@@2@XZ
	?swap@?$vector@UFutureCallback@Future@ivalue@c10@@V?$allocator@UFutureCallback@Future@ivalue@c10@@@std@@@std@@QEAAXAEAV12@@Z
	?swap@?$weak_ptr@USharedType@c10@@@std@@QEAAXAEAV12@@Z
	?synchronizeDevice@VirtualGuardImpl@impl@c10@@UEBAXC@Z
	?synchronizeEvent@VirtualGuardImpl@impl@c10@@UEBAXPEAX@Z
	?synchronizeStream@VirtualGuardImpl@impl@c10@@UEBAXAEBVStream@3@@Z
	?synchronizeWithCurrentStreams@Future@ivalue@c10@@AEAAXXZ
	?tanh@at@@YA?AVTensor@1@AEBV21@@Z
	?to_char_type@?$_Narrow_char_traits@DH@std@@SADH@Z
	?to_int_type@?$_Narrow_char_traits@DH@std@@SAHD@Z
	?tryRetrieveErrorMessage@Future@ivalue@c10@@QEBA?AV?$basic_string@DU?$char_traits@D@std@@V?$allocator@D@2@@std@@XZ
	?tryRetrieveErrorMessageInternal@Future@ivalue@c10@@AEBA?AV?$basic_string@DU?$char_traits@D@std@@V?$allocator@D@2@@std@@Vexception_ptr@5@@Z
	?type@Await@ivalue@c10@@QEBAAEBV?$SingletonOrSharedTypePtr@UType@c10@@@Type@3@XZ
	?type@VirtualGuardImpl@impl@c10@@UEBA?AW4DeviceType@3@XZ
	?uncheckedSetDevice@VirtualGuardImpl@impl@c10@@UEBAXUDevice@3@@Z
	?underflow@?$basic_stringbuf@DU?$char_traits@D@std@@V?$allocator@D@2@@std@@MEAAHXZ
	?unlock@?$unique_lock@Vmutex@std@@@std@@QEAAXXZ
	?unlock@_Mutex_base@std@@QEAAXXZ
	?unsafeRemoveSlot@Object@ivalue@c10@@QEAAX_K@Z
	?unsafe_make_weak_compilation_ref@Object@ivalue@c10@@QEAAXXZ
	?use_count@?$_Ptr_base@USharedType@c10@@@std@@QEBAJXZ
	?use_count@?$intrusive_ptr@UTensorImpl@c10@@UUndefinedTensorImpl@2@@c10@@QEBAIXZ
	?use_count@?$weak_intrusive_ptr@UStorageImpl@c10@@U?$intrusive_target_default_null_type@UStorageImpl@c10@@@detail@2@@c10@@QEBAIXZ
	?value@?$optional@UDevice@c10@@@std@@QEGAAAEAUDevice@c10@@XZ
	?value@Await@ivalue@c10@@QEAA?AUIValue@3@XZ
	?value@Future@ivalue@c10@@QEAA?AUIValue@3@XZ
	?value@error_code@std@@QEBAHXZ
	?value@error_condition@std@@QEBAHXZ
	?wait@Await@ivalue@c10@@QEAA?AUIValue@3@XZ
	?wait@Future@ivalue@c10@@QEAAXXZ
	?wait@condition_variable@std@@QEAAXAEAV?$unique_lock@Vmutex@std@@@2@@Z
	?waitAndThrow@Future@ivalue@c10@@QEAAXXZ
	?what@bad_optional_access@std@@UEBAPEBDXZ
	?what@bad_weak_ptr@std@@UEBAPEBDXZ
	?what@exception@std@@UEBAPEBDXZ
	?zeros@at@@YA?AVTensor@1@V?$ArrayRef@_J@c10@@UTensorOptions@4@@Z
	?zeros@torch@@YA?AVTensor@at@@V?$ArrayRef@_J@c10@@UTensorOptions@5@@Z
	?zeros_like@at@@YA?AVTensor@1@AEBV21@UTensorOptions@c10@@V?$optional@W4MemoryFormat@c10@@@std@@@Z
	?zeros_like@torch@@YA?AVTensor@at@@AEBV23@UTensorOptions@c10@@V?$optional@W4MemoryFormat@c10@@@std@@@Z
	Backward
	CreateAdam
	CreateLinear
	CreateMatrixTensor
	CreateSGD
	CreateTFTensor
	CreateTensorEye
	CreateTensorOnes
	CreateTensorRand
	CreateTensorRandn
	CreateTensorZeros
	CrossEntropyLoss
	FreeModel
	FreeOptimizer
	FreeTFTensor
	FreeTensor
	GetTensorData
	LinearForward
	LoadSavedModel
	MSELoss
	OptimizerStep
	OptimizerZeroGrad
	RunSession
	TFTensorAdd
	TFTensorDiv
	TFTensorMul
	TFTensorSub
	TensorAbs
	TensorArgmax
	TensorArgmin
	TensorCols
	TensorCos
	TensorData
	TensorExp
	TensorLog
	TensorOnesLike
	TensorPow
	TensorReLU
	TensorRows
	TensorSigmoid
	TensorSin
	TensorSqrt
	TensorStd
	TensorTanh
	TensorVar
	TensorZerosLike
	VersionTF
	_Check_memory_order
	__local_stdio_printf_options
	_vfprintf_l
	fprintf
	printf
	wmemcpy
